
app7win.exe:     file format pei-i386


Disassembly of section .text:

00401000 <.text>:
  401000:	55                   	push   %ebp
  401001:	8b ec                	mov    %esp,%ebp
  401003:	83 ec 2c             	sub    $0x2c,%esp
  401006:	68 30 80 40 00       	push   $0x408030
  40100b:	e8 38 04 00 00       	call   0x401448				//calling puts("Please enter the password:")
  401010:	83 c4 04             	add    $0x4,%esp
  401013:	6a 10                	push   $0x10
  401015:	6a 00                	push   $0x0
  401017:	8d 45 ec             	lea    -0x14(%ebp),%eax		//
  40101a:	50                   	push   %eax
  40101b:	e8 d0 03 00 00       	call   0x4013f0
  401020:	83 c4 0c             	add    $0xc,%esp
  401023:	c7 45 e4 00 00 00 00 	movl   $0x0,-0x1c(%ebp)
  40102a:	c7 45 e8 00 00 00 00 	movl   $0x0,-0x18(%ebp)
  401031:	c7 45 dc 00 00 00 00 	movl   $0x0,-0x24(%ebp)
  401038:	c7 45 d8 00 00 00 00 	movl   $0x0,-0x28(%ebp)
  40103f:	e8 9c 03 00 00       	call   0x4013e0				//calling getchar
  401044:	88 45 fc             	mov    %al,-0x4(%ebp)
  401047:	0f be 4d fc          	movsbl -0x4(%ebp),%ecx
  40104b:	8b 55 e4             	mov    -0x1c(%ebp),%edx
  40104e:	03 d1                	add    %ecx,%edx
  401050:	89 55 e4             	mov    %edx,-0x1c(%ebp)
  401053:	0f be 45 fc          	movsbl -0x4(%ebp),%eax
  401057:	83 f8 0a             	cmp    $0xa,%eax			//cmp if newline is given 
  40105a:	74 08                	je     0x401064				//if newline is given exit from input loop
  40105c:	0f be 4d fc          	movsbl -0x4(%ebp),%ecx		//testing if EOF is given(!)
  401060:	85 c9                	test   %ecx,%ecx
  401062:	75 db                	jne    0x40103f
  401064:	68 4c 80 40 00       	push   $0x40804c
  401069:	68 50 80 40 00       	push   $0x408050
  40106e:	e8 4e 03 00 00       	call   0x4013c1				//calling fopen("encrypted.enc", "rb");
  401073:	83 c4 08             	add    $0x8,%esp			
  401076:	89 45 d4             	mov    %eax,-0x2c(%ebp)		//assigning FILE *fp at -0x2c(%ebp) at main
  401079:	83 7d d4 00          	cmpl   $0x0,-0x2c(%ebp)		//comparing if *fp==NULL
  40107d:	75 14                	jne    0x401093
  40107f:	68 60 80 40 00       	push   $0x408060
  401084:	e8 bf 03 00 00       	call   0x401448
  401089:	83 c4 04             	add    $0x4,%esp
  40108c:	33 c0                	xor    %eax,%eax
  40108e:	e9 24 01 00 00       	jmp    0x4011b7
  401093:	8b 55 dc             	mov    -0x24(%ebp),%edx		//if encrypted.enc exists, edx=c
  401096:	83 e2 04             	and    $0x4,%edx			//see if c/4 is odd
  401099:	85 d2                	test   %edx,%edx			//check c/4 is odd
  40109b:	74 0e                	je     0x4010ab				//jmp to loop if c/4 is not odd
  40109d:	8b 45 dc             	mov    -0x24(%ebp),%eax		//else eax=c
  4010a0:	83 e0 01             	and    $0x1,%eax			//else check if c is odd
  4010a3:	85 c0                	test   %eax,%eax			//check
  4010a5:	0f 85 d5 00 00 00    	jne    0x401180				//if c is odd no transformation exit from whole loop
  4010ab:	8b 4d d4             	mov    -0x2c(%ebp),%ecx
  4010ae:	51                   	push   %ecx
  4010af:	6a 01                	push   $0x1
  4010b1:	6a 01                	push   $0x1
  4010b3:	8d 55 e0             	lea    -0x20(%ebp),%edx
  4010b6:	52                   	push   %edx
  4010b7:	e8 bd 01 00 00       	call   0x401279				//calling fread(buf, 1, 1, fp);
  4010bc:	83 c4 10             	add    $0x10,%esp
  4010bf:	83 f8 01             	cmp    $0x1,%eax
  4010c2:	74 14                	je     0x4010d8
  4010c4:	68 80 80 40 00       	push   $0x408080			//if read failed
  4010c9:	e8 7a 03 00 00       	call   0x401448
  4010ce:	83 c4 04             	add    $0x4,%esp
  4010d1:	33 c0                	xor    %eax,%eax
  4010d3:	e9 df 00 00 00       	jmp    0x4011b7				//jmp to exit
  4010d8:	8b 45 e0             	mov    -0x20(%ebp),%eax
  4010db:	25 ff 00 00 00       	and    $0xff,%eax			//eax=buf&0xff
  4010e0:	33 45 e4             	xor    -0x1c(%ebp),%eax		//eax=a^eax
  4010e3:	8b 4d e8             	mov    -0x18(%ebp),%ecx		//ecx=b
  4010e6:	03 c8                	add    %eax,%ecx			//ecx=ecx+eax=b+a^(buf&0xff)
  4010e8:	89 4d e8             	mov    %ecx,-0x18(%ebp)		//b=ecx => b+=a^(buf&0xff)
  4010eb:	8b 55 e0             	mov    -0x20(%ebp),%edx		//edx=buf
  4010ee:	81 e2 ff 00 00 00    	and    $0xff,%edx			//extract the byte value of edx into edx
  4010f4:	33 55 e4             	xor    -0x1c(%ebp),%edx		//edx=edx^a=(byte)buf^a
  4010f7:	8b 45 dc             	mov    -0x24(%ebp),%eax		//eax=c
  4010fa:	88 54 05 ec          	mov    %dl,-0x14(%ebp,%eax,1)	//char out[c]=(buf&0xff)^a
  4010fe:	c7 45 d8 00 00 00 00 	movl   $0x0,-0x28(%ebp)		//d=0
  401105:	eb 09                	jmp    0x401110				//jmp to do while loop body
  401107:	8b 4d d8             	mov    -0x28(%ebp),%ecx		//ecx=d
  40110a:	83 c1 01             	add    $0x1,%ecx			//ecx++
  40110d:	89 4d d8             	mov    %ecx,-0x28(%ebp)		//d=ecx => d++
  401110:	8b 55 d8             	mov    -0x28(%ebp),%edx		//edx=d
  401113:	3b 55 e4             	cmp    -0x1c(%ebp),%edx		//cmp by d-a
  401116:	73 4a                	jae    0x401162				//if d>=a
  401118:	8b 45 dc             	mov    -0x24(%ebp),%eax		//eax=c
  40111b:	33 c9                	xor    %ecx,%ecx			//ecx=0
  40111d:	8a 4c 05 ec          	mov    -0x14(%ebp,%eax,1),%cl	//cl=out[c]
  401121:	83 e1 01             	and    $0x1,%ecx			//checking if out[c] is odd or even
  401124:	85 c9                	test   %ecx,%ecx			
  401126:	74 26                	je     0x40114e				//if out[c] even jmp
  401128:	8b 55 dc             	mov    -0x24(%ebp),%edx		//edx=c
  40112b:	33 c0                	xor    %eax,%eax			//eax=0
  40112d:	8a 44 15 ec          	mov    -0x14(%ebp,%edx,1),%al	//al=out[c]
  401131:	d1 f8                	sar    %eax					//al=al>>1
  401133:	8b 4d dc             	mov    -0x24(%ebp),%ecx		//ecx=c
  401136:	88 44 0d ec          	mov    %al,-0x14(%ebp,%ecx,1)	//out[c]=al => out[c]=out[c]>>1
  40113a:	8b 55 dc             	mov    -0x24(%ebp),%edx		//edx=c
  40113d:	33 c0                	xor    %eax,%eax			//eax=0
  40113f:	8a 44 15 ec          	mov    -0x14(%ebp,%edx,1),%al	//al=out[c]
  401143:	0c 80                	or     $0x80,%al			//al=al|0x80
  401145:	8b 4d dc             	mov    -0x24(%ebp),%ecx		//ecx=c
  401148:	88 44 0d ec          	mov    %al,-0x14(%ebp,%ecx,1)	//out[c]=al => out[c]=out[c]|0x80
  40114c:	eb 12                	jmp    0x401160				//end
  40114e:	8b 55 dc             	mov    -0x24(%ebp),%edx		//if out[c] is even, edx=c
  401151:	33 c0                	xor    %eax,%eax			//eax=0
  401153:	8a 44 15 ec          	mov    -0x14(%ebp,%edx,1),%al	//al=out[c]
  401157:	d1 f8                	sar    %eax					//al=al>>1
  401159:	8b 4d dc             	mov    -0x24(%ebp),%ecx		//ecx=c
  40115c:	88 44 0d ec          	mov    %al,-0x14(%ebp,%ecx,1)	//out[c]=al => out[c]>>=1
  401160:	eb a5                	jmp    0x401107				//jmp to do while loop condition part
  401162:	8b 55 dc             	mov    -0x24(%ebp),%edx		//edx=c
  401165:	8a 44 15 ec          	mov    -0x14(%ebp,%edx,1),%al	//al=out[c]
  401169:	04 03                	add    $0x3,%al				//al=al+3
  40116b:	8b 4d dc             	mov    -0x24(%ebp),%ecx		//ecx=c
  40116e:	88 44 0d ec          	mov    %al,-0x14(%ebp,%ecx,1)	//out[c]=al => out[c]=out[c]+3
  401172:	8b 55 dc             	mov    -0x24(%ebp),%edx		//edx=c
  401175:	83 c2 01             	add    $0x1,%edx			//edx=edx+1
  401178:	89 55 dc             	mov    %edx,-0x24(%ebp)		//c=edx => c=c+1
  40117b:	e9 13 ff ff ff       	jmp    0x401093				//jmp to loop
  401180:	8b 45 d4             	mov    -0x2c(%ebp),%eax
  401183:	50                   	push   %eax
  401184:	e8 73 00 00 00       	call   0x4011fc
  401189:	83 c4 04             	add    $0x4,%esp
  40118c:	81 7d e8 ca 0d 00 00 	cmpl   $0xdca,-0x18(%ebp)	//cmp if b==0xdca
  401193:	75 13                	jne    0x4011a8
  401195:	8d 4d ec             	lea    -0x14(%ebp),%ecx
  401198:	51                   	push   %ecx
  401199:	68 94 80 40 00       	push   $0x408094
  40119e:	e8 18 00 00 00       	call   0x4011bb
  4011a3:	83 c4 08             	add    $0x8,%esp
  4011a6:	eb 0d                	jmp    0x4011b5
  4011a8:	68 bc 80 40 00       	push   $0x4080bc
  4011ad:	e8 96 02 00 00       	call   0x401448
  4011b2:	83 c4 04             	add    $0x4,%esp
  4011b5:	33 c0                	xor    %eax,%eax
  4011b7:	8b e5                	mov    %ebp,%esp
  4011b9:	5d                   	pop    %ebp
  4011ba:	c3                   	ret    
  4011bb:	53                   	push   %ebx
  4011bc:	56                   	push   %esi
  4011bd:	be f8 80 40 00       	mov    $0x4080f8,%esi
  4011c2:	57                   	push   %edi
  4011c3:	56                   	push   %esi
  4011c4:	6a 01                	push   $0x1
  4011c6:	e8 19 05 00 00       	call   0x4016e4
  4011cb:	56                   	push   %esi
  4011cc:	e8 88 05 00 00       	call   0x401759
  4011d1:	8b f8                	mov    %eax,%edi
  4011d3:	8d 44 24 20          	lea    0x20(%esp),%eax
  4011d7:	50                   	push   %eax
  4011d8:	ff 74 24 20          	pushl  0x20(%esp)
  4011dc:	56                   	push   %esi
  4011dd:	e8 2e 06 00 00       	call   0x401810
  4011e2:	56                   	push   %esi
  4011e3:	57                   	push   %edi
  4011e4:	8b d8                	mov    %eax,%ebx
  4011e6:	e8 fb 05 00 00       	call   0x4017e6
  4011eb:	56                   	push   %esi
  4011ec:	6a 01                	push   $0x1
  4011ee:	e8 43 05 00 00       	call   0x401736
  4011f3:	83 c4 28             	add    $0x28,%esp
  4011f6:	8b c3                	mov    %ebx,%eax
  4011f8:	5f                   	pop    %edi
  4011f9:	5e                   	pop    %esi
  4011fa:	5b                   	pop    %ebx
  4011fb:	c3                   	ret    
  4011fc:	56                   	push   %esi
  4011fd:	8b 74 24 08          	mov    0x8(%esp),%esi
  401201:	57                   	push   %edi
  401202:	83 cf ff             	or     $0xffffffff,%edi
  401205:	f6 46 0c 40          	testb  $0x40,0xc(%esi)
  401209:	74 06                	je     0x401211
  40120b:	83 66 0c 00          	andl   $0x0,0xc(%esi)
  40120f:	eb 17                	jmp    0x401228
  401211:	56                   	push   %esi
  401212:	e8 9e 04 00 00       	call   0x4016b5
  401217:	56                   	push   %esi
  401218:	e8 10 00 00 00       	call   0x40122d
  40121d:	56                   	push   %esi
  40121e:	8b f8                	mov    %eax,%edi
  401220:	e8 e2 04 00 00       	call   0x401707
  401225:	83 c4 0c             	add    $0xc,%esp
  401228:	8b c7                	mov    %edi,%eax
  40122a:	5f                   	pop    %edi
  40122b:	5e                   	pop    %esi
  40122c:	c3                   	ret    
  40122d:	56                   	push   %esi
  40122e:	8b 74 24 08          	mov    0x8(%esp),%esi
  401232:	57                   	push   %edi
  401233:	83 cf ff             	or     $0xffffffff,%edi
  401236:	f6 46 0c 83          	testb  $0x83,0xc(%esi)
  40123a:	74 34                	je     0x401270
  40123c:	56                   	push   %esi
  40123d:	e8 59 0f 00 00       	call   0x40219b
  401242:	56                   	push   %esi
  401243:	8b f8                	mov    %eax,%edi
  401245:	e8 f8 0e 00 00       	call   0x402142
  40124a:	ff 76 10             	pushl  0x10(%esi)
  40124d:	e8 10 0e 00 00       	call   0x402062
  401252:	83 c4 0c             	add    $0xc,%esp
  401255:	85 c0                	test   %eax,%eax
  401257:	7d 05                	jge    0x40125e
  401259:	83 cf ff             	or     $0xffffffff,%edi
  40125c:	eb 12                	jmp    0x401270
  40125e:	8b 46 1c             	mov    0x1c(%esi),%eax
  401261:	85 c0                	test   %eax,%eax
  401263:	74 0b                	je     0x401270
  401265:	50                   	push   %eax
  401266:	e8 af 0d 00 00       	call   0x40201a
  40126b:	83 66 1c 00          	andl   $0x0,0x1c(%esi)
  40126f:	59                   	pop    %ecx
  401270:	83 66 0c 00          	andl   $0x0,0xc(%esi)
  401274:	8b c7                	mov    %edi,%eax
  401276:	5f                   	pop    %edi
  401277:	5e                   	pop    %esi
  401278:	c3                   	ret    
  401279:	55                   	push   %ebp
  40127a:	8b ec                	mov    %esp,%ebp
  40127c:	56                   	push   %esi
  40127d:	ff 75 14             	pushl  0x14(%ebp)
  401280:	e8 30 04 00 00       	call   0x4016b5
  401285:	ff 75 14             	pushl  0x14(%ebp)
  401288:	ff 75 10             	pushl  0x10(%ebp)
  40128b:	ff 75 0c             	pushl  0xc(%ebp)
  40128e:	ff 75 08             	pushl  0x8(%ebp)
  401291:	e8 12 00 00 00       	call   0x4012a8
  401296:	ff 75 14             	pushl  0x14(%ebp)
  401299:	8b f0                	mov    %eax,%esi
  40129b:	e8 67 04 00 00       	call   0x401707
  4012a0:	83 c4 18             	add    $0x18,%esp
  4012a3:	8b c6                	mov    %esi,%eax
  4012a5:	5e                   	pop    %esi
  4012a6:	5d                   	pop    %ebp
  4012a7:	c3                   	ret    
  4012a8:	55                   	push   %ebp
  4012a9:	8b ec                	mov    %esp,%ebp
  4012ab:	51                   	push   %ecx
  4012ac:	53                   	push   %ebx
  4012ad:	56                   	push   %esi
  4012ae:	57                   	push   %edi
  4012af:	8b 7d 0c             	mov    0xc(%ebp),%edi
  4012b2:	0f af 7d 10          	imul   0x10(%ebp),%edi
  4012b6:	8b 5d 08             	mov    0x8(%ebp),%ebx
  4012b9:	8b cf                	mov    %edi,%ecx
  4012bb:	85 ff                	test   %edi,%edi
  4012bd:	89 7d fc             	mov    %edi,-0x4(%ebp)
  4012c0:	89 4d 08             	mov    %ecx,0x8(%ebp)
  4012c3:	75 07                	jne    0x4012cc
  4012c5:	33 c0                	xor    %eax,%eax
  4012c7:	e9 a9 00 00 00       	jmp    0x401375
  4012cc:	8b 75 14             	mov    0x14(%ebp),%esi
  4012cf:	66 f7 46 0c 0c 01    	testw  $0x10c,0xc(%esi)
  4012d5:	74 08                	je     0x4012df
  4012d7:	8b 46 18             	mov    0x18(%esi),%eax
  4012da:	89 45 14             	mov    %eax,0x14(%ebp)
  4012dd:	eb 0c                	jmp    0x4012eb
  4012df:	c7 45 14 00 10 00 00 	movl   $0x1000,0x14(%ebp)
  4012e6:	eb 03                	jmp    0x4012eb
  4012e8:	8b 4d 08             	mov    0x8(%ebp),%ecx
  4012eb:	66 f7 46 0c 0c 01    	testw  $0x10c,0xc(%esi)
  4012f1:	74 2a                	je     0x40131d
  4012f3:	8b 46 04             	mov    0x4(%esi),%eax
  4012f6:	85 c0                	test   %eax,%eax
  4012f8:	74 23                	je     0x40131d
  4012fa:	3b c8                	cmp    %eax,%ecx
  4012fc:	8b f9                	mov    %ecx,%edi
  4012fe:	72 02                	jb     0x401302
  401300:	8b f8                	mov    %eax,%edi
  401302:	57                   	push   %edi
  401303:	ff 36                	pushl  (%esi)
  401305:	53                   	push   %ebx
  401306:	e8 b5 12 00 00       	call   0x4025c0
  40130b:	29 7d 08             	sub    %edi,0x8(%ebp)
  40130e:	29 7e 04             	sub    %edi,0x4(%esi)
  401311:	01 3e                	add    %edi,(%esi)
  401313:	83 c4 0c             	add    $0xc,%esp
  401316:	03 df                	add    %edi,%ebx
  401318:	8b 7d fc             	mov    -0x4(%ebp),%edi
  40131b:	eb 4b                	jmp    0x401368
  40131d:	3b 4d 14             	cmp    0x14(%ebp),%ecx
  401320:	72 2e                	jb     0x401350
  401322:	83 7d 14 00          	cmpl   $0x0,0x14(%ebp)
  401326:	8b c1                	mov    %ecx,%eax
  401328:	74 09                	je     0x401333
  40132a:	33 d2                	xor    %edx,%edx
  40132c:	f7 75 14             	divl   0x14(%ebp)
  40132f:	8b c1                	mov    %ecx,%eax
  401331:	2b c2                	sub    %edx,%eax
  401333:	50                   	push   %eax
  401334:	53                   	push   %ebx
  401335:	ff 76 10             	pushl  0x10(%esi)
  401338:	e8 43 10 00 00       	call   0x402380
  40133d:	83 c4 0c             	add    $0xc,%esp
  401340:	85 c0                	test   %eax,%eax
  401342:	74 36                	je     0x40137a
  401344:	83 f8 ff             	cmp    $0xffffffff,%eax
  401347:	74 37                	je     0x401380
  401349:	29 45 08             	sub    %eax,0x8(%ebp)
  40134c:	03 d8                	add    %eax,%ebx
  40134e:	eb 18                	jmp    0x401368
  401350:	56                   	push   %esi
  401351:	e8 4e 0f 00 00       	call   0x4022a4
  401356:	83 f8 ff             	cmp    $0xffffffff,%eax
  401359:	59                   	pop    %ecx
  40135a:	74 28                	je     0x401384
  40135c:	88 03                	mov    %al,(%ebx)
  40135e:	8b 46 18             	mov    0x18(%esi),%eax
  401361:	43                   	inc    %ebx
  401362:	ff 4d 08             	decl   0x8(%ebp)
  401365:	89 45 14             	mov    %eax,0x14(%ebp)
  401368:	83 7d 08 00          	cmpl   $0x0,0x8(%ebp)
  40136c:	0f 85 76 ff ff ff    	jne    0x4012e8
  401372:	8b 45 10             	mov    0x10(%ebp),%eax
  401375:	5f                   	pop    %edi
  401376:	5e                   	pop    %esi
  401377:	5b                   	pop    %ebx
  401378:	c9                   	leave  
  401379:	c3                   	ret    
  40137a:	83 4e 0c 10          	orl    $0x10,0xc(%esi)
  40137e:	eb 04                	jmp    0x401384
  401380:	83 4e 0c 20          	orl    $0x20,0xc(%esi)
  401384:	8b c7                	mov    %edi,%eax
  401386:	33 d2                	xor    %edx,%edx
  401388:	2b 45 08             	sub    0x8(%ebp),%eax
  40138b:	f7 75 0c             	divl   0xc(%ebp)
  40138e:	eb e5                	jmp    0x401375
  401390:	56                   	push   %esi
  401391:	e8 cf 16 00 00       	call   0x402a65
  401396:	8b f0                	mov    %eax,%esi
  401398:	85 f6                	test   %esi,%esi
  40139a:	75 02                	jne    0x40139e
  40139c:	5e                   	pop    %esi
  40139d:	c3                   	ret    
  40139e:	57                   	push   %edi
  40139f:	56                   	push   %esi
  4013a0:	ff 74 24 18          	pushl  0x18(%esp)
  4013a4:	ff 74 24 18          	pushl  0x18(%esp)
  4013a8:	ff 74 24 18          	pushl  0x18(%esp)
  4013ac:	e8 44 15 00 00       	call   0x4028f5
  4013b1:	56                   	push   %esi
  4013b2:	8b f8                	mov    %eax,%edi
  4013b4:	e8 4e 03 00 00       	call   0x401707
  4013b9:	83 c4 14             	add    $0x14,%esp
  4013bc:	8b c7                	mov    %edi,%eax
  4013be:	5f                   	pop    %edi
  4013bf:	5e                   	pop    %esi
  4013c0:	c3                   	ret    
  4013c1:	6a 40                	push   $0x40
  4013c3:	ff 74 24 0c          	pushl  0xc(%esp)
  4013c7:	ff 74 24 0c          	pushl  0xc(%esp)
  4013cb:	e8 c0 ff ff ff       	call   0x401390
  4013d0:	83 c4 0c             	add    $0xc,%esp
  4013d3:	c3                   	ret    
  4013d4:	68 d8 80 40 00       	push   $0x4080d8
  4013d9:	e8 80 17 00 00       	call   0x402b5e
  4013de:	59                   	pop    %ecx
  4013df:	c3                   	ret    
  4013e0:	e9 ef ff ff ff       	jmp    0x4013d4
  4013e5:	cc                   	int3   
  4013e6:	cc                   	int3   
  4013e7:	cc                   	int3   
  4013e8:	cc                   	int3   
  4013e9:	cc                   	int3   
  4013ea:	cc                   	int3   
  4013eb:	cc                   	int3   
  4013ec:	cc                   	int3   
  4013ed:	cc                   	int3   
  4013ee:	cc                   	int3   
  4013ef:	cc                   	int3   
  4013f0:	8b 54 24 0c          	mov    0xc(%esp),%edx
  4013f4:	8b 4c 24 04          	mov    0x4(%esp),%ecx
  4013f8:	85 d2                	test   %edx,%edx
  4013fa:	74 47                	je     0x401443
  4013fc:	33 c0                	xor    %eax,%eax
  4013fe:	8a 44 24 08          	mov    0x8(%esp),%al
  401402:	57                   	push   %edi
  401403:	8b f9                	mov    %ecx,%edi
  401405:	83 fa 04             	cmp    $0x4,%edx
  401408:	72 2d                	jb     0x401437
  40140a:	f7 d9                	neg    %ecx
  40140c:	83 e1 03             	and    $0x3,%ecx
  40140f:	74 08                	je     0x401419
  401411:	2b d1                	sub    %ecx,%edx
  401413:	88 07                	mov    %al,(%edi)
  401415:	47                   	inc    %edi
  401416:	49                   	dec    %ecx
  401417:	75 fa                	jne    0x401413
  401419:	8b c8                	mov    %eax,%ecx
  40141b:	c1 e0 08             	shl    $0x8,%eax
  40141e:	03 c1                	add    %ecx,%eax
  401420:	8b c8                	mov    %eax,%ecx
  401422:	c1 e0 10             	shl    $0x10,%eax
  401425:	03 c1                	add    %ecx,%eax
  401427:	8b ca                	mov    %edx,%ecx
  401429:	83 e2 03             	and    $0x3,%edx
  40142c:	c1 e9 02             	shr    $0x2,%ecx
  40142f:	74 06                	je     0x401437
  401431:	f3 ab                	rep stos %eax,%es:(%edi)
  401433:	85 d2                	test   %edx,%edx
  401435:	74 06                	je     0x40143d
  401437:	88 07                	mov    %al,(%edi)
  401439:	47                   	inc    %edi
  40143a:	4a                   	dec    %edx
  40143b:	75 fa                	jne    0x401437
  40143d:	8b 44 24 08          	mov    0x8(%esp),%eax
  401441:	5f                   	pop    %edi
  401442:	c3                   	ret    
  401443:	8b 44 24 04          	mov    0x4(%esp),%eax
  401447:	c3                   	ret    
  401448:	53                   	push   %ebx
  401449:	55                   	push   %ebp
  40144a:	56                   	push   %esi
  40144b:	be f8 80 40 00       	mov    $0x4080f8,%esi
  401450:	57                   	push   %edi
  401451:	56                   	push   %esi
  401452:	6a 01                	push   $0x1
  401454:	83 cb ff             	or     $0xffffffff,%ebx
  401457:	e8 88 02 00 00       	call   0x4016e4
  40145c:	56                   	push   %esi
  40145d:	e8 f7 02 00 00       	call   0x401759
  401462:	ff 74 24 20          	pushl  0x20(%esp)
  401466:	8b e8                	mov    %eax,%ebp
  401468:	e8 23 19 00 00       	call   0x402d90
  40146d:	8b f8                	mov    %eax,%edi
  40146f:	56                   	push   %esi
  401470:	57                   	push   %edi
  401471:	6a 01                	push   $0x1
  401473:	ff 74 24 30          	pushl  0x30(%esp)
  401477:	e8 05 18 00 00       	call   0x402c81
  40147c:	83 c4 20             	add    $0x20,%esp
  40147f:	3b c7                	cmp    %edi,%eax
  401481:	75 24                	jne    0x4014a7
  401483:	ff 0d fc 80 40 00    	decl   0x4080fc
  401489:	78 10                	js     0x40149b
  40148b:	a1 f8 80 40 00       	mov    0x4080f8,%eax
  401490:	c6 00 0a             	movb   $0xa,(%eax)
  401493:	ff 05 f8 80 40 00    	incl   0x4080f8
  401499:	eb 0a                	jmp    0x4014a5
  40149b:	56                   	push   %esi
  40149c:	6a 0a                	push   $0xa
  40149e:	e8 c6 16 00 00       	call   0x402b69
  4014a3:	59                   	pop    %ecx
  4014a4:	59                   	pop    %ecx
  4014a5:	33 db                	xor    %ebx,%ebx
  4014a7:	56                   	push   %esi
  4014a8:	55                   	push   %ebp
  4014a9:	e8 38 03 00 00       	call   0x4017e6
  4014ae:	56                   	push   %esi
  4014af:	6a 01                	push   $0x1
  4014b1:	e8 80 02 00 00       	call   0x401736
  4014b6:	83 c4 10             	add    $0x10,%esp
  4014b9:	8b c3                	mov    %ebx,%eax
  4014bb:	5f                   	pop    %edi
  4014bc:	5e                   	pop    %esi
  4014bd:	5d                   	pop    %ebp
  4014be:	5b                   	pop    %ebx
  4014bf:	c3                   	ret    
  4014c0:	55                   	push   %ebp
  4014c1:	8b ec                	mov    %esp,%ebp
  4014c3:	6a ff                	push   $0xffffffff
  4014c5:	68 e0 70 40 00       	push   $0x4070e0
  4014ca:	68 9c 38 40 00       	push   $0x40389c
  4014cf:	64 a1 00 00 00 00    	mov    %fs:0x0,%eax
  4014d5:	50                   	push   %eax
  4014d6:	64 89 25 00 00 00 00 	mov    %esp,%fs:0x0
  4014dd:	83 ec 10             	sub    $0x10,%esp
  4014e0:	53                   	push   %ebx
  4014e1:	56                   	push   %esi
  4014e2:	57                   	push   %edi
  4014e3:	89 65 e8             	mov    %esp,-0x18(%ebp)
  4014e6:	ff 15 04 70 40 00    	call   *0x407004
  4014ec:	33 d2                	xor    %edx,%edx
  4014ee:	8a d4                	mov    %ah,%dl
  4014f0:	89 15 88 8d 40 00    	mov    %edx,0x408d88
  4014f6:	8b c8                	mov    %eax,%ecx
  4014f8:	81 e1 ff 00 00 00    	and    $0xff,%ecx
  4014fe:	89 0d 84 8d 40 00    	mov    %ecx,0x408d84
  401504:	c1 e1 08             	shl    $0x8,%ecx
  401507:	03 ca                	add    %edx,%ecx
  401509:	89 0d 80 8d 40 00    	mov    %ecx,0x408d80
  40150f:	c1 e8 10             	shr    $0x10,%eax
  401512:	a3 7c 8d 40 00       	mov    %eax,0x408d7c
  401517:	6a 01                	push   $0x1
  401519:	e8 47 22 00 00       	call   0x403765
  40151e:	59                   	pop    %ecx
  40151f:	85 c0                	test   %eax,%eax
  401521:	75 08                	jne    0x40152b
  401523:	6a 1c                	push   $0x1c
  401525:	e8 ab 00 00 00       	call   0x4015d5
  40152a:	59                   	pop    %ecx
  40152b:	e8 67 21 00 00       	call   0x403697
  401530:	85 c0                	test   %eax,%eax
  401532:	75 08                	jne    0x40153c
  401534:	6a 10                	push   $0x10
  401536:	e8 9a 00 00 00       	call   0x4015d5
  40153b:	59                   	pop    %ecx
  40153c:	83 65 fc 00          	andl   $0x0,-0x4(%ebp)
  401540:	e8 96 1f 00 00       	call   0x4034db
  401545:	ff 15 00 70 40 00    	call   *0x407000
  40154b:	a3 44 a4 40 00       	mov    %eax,0x40a444
  401550:	e8 54 1e 00 00       	call   0x4033a9
  401555:	a3 60 8d 40 00       	mov    %eax,0x408d60
  40155a:	e8 fd 1b 00 00       	call   0x40315c
  40155f:	e8 3f 1b 00 00       	call   0x4030a3
  401564:	e8 a2 18 00 00       	call   0x402e0b
  401569:	a1 98 8d 40 00       	mov    0x408d98,%eax
  40156e:	a3 9c 8d 40 00       	mov    %eax,0x408d9c
  401573:	50                   	push   %eax
  401574:	ff 35 90 8d 40 00    	pushl  0x408d90
  40157a:	ff 35 8c 8d 40 00    	pushl  0x408d8c
  401580:	e8 7b fa ff ff       	call   0x401000
  401585:	83 c4 0c             	add    $0xc,%esp
  401588:	89 45 e4             	mov    %eax,-0x1c(%ebp)
  40158b:	50                   	push   %eax
  40158c:	e8 a7 18 00 00       	call   0x402e38
  401591:	8b 45 ec             	mov    -0x14(%ebp),%eax
  401594:	8b 08                	mov    (%eax),%ecx
  401596:	8b 09                	mov    (%ecx),%ecx
  401598:	89 4d e0             	mov    %ecx,-0x20(%ebp)
  40159b:	50                   	push   %eax
  40159c:	51                   	push   %ecx
  40159d:	e8 89 19 00 00       	call   0x402f2b
  4015a2:	59                   	pop    %ecx
  4015a3:	59                   	pop    %ecx
  4015a4:	c3                   	ret    
  4015a5:	8b 65 e8             	mov    -0x18(%ebp),%esp
  4015a8:	ff 75 e0             	pushl  -0x20(%ebp)
  4015ab:	e8 99 18 00 00       	call   0x402e49
  4015b0:	83 3d 68 8d 40 00 02 	cmpl   $0x2,0x408d68
  4015b7:	74 05                	je     0x4015be
  4015b9:	e8 b6 23 00 00       	call   0x403974
  4015be:	ff 74 24 04          	pushl  0x4(%esp)
  4015c2:	e8 e6 23 00 00       	call   0x4039ad
  4015c7:	68 ff 00 00 00       	push   $0xff
  4015cc:	ff 15 d0 80 40 00    	call   *0x4080d0
  4015d2:	59                   	pop    %ecx
  4015d3:	59                   	pop    %ecx
  4015d4:	c3                   	ret    
  4015d5:	83 3d 68 8d 40 00 02 	cmpl   $0x2,0x408d68
  4015dc:	74 05                	je     0x4015e3
  4015de:	e8 91 23 00 00       	call   0x403974
  4015e3:	ff 74 24 04          	pushl  0x4(%esp)
  4015e7:	e8 c1 23 00 00       	call   0x4039ad
  4015ec:	59                   	pop    %ecx
  4015ed:	68 ff 00 00 00       	push   $0xff
  4015f2:	ff 15 08 70 40 00    	call   *0x407008
  4015f8:	c3                   	ret    
  4015f9:	a1 40 a4 40 00       	mov    0x40a440,%eax
  4015fe:	56                   	push   %esi
  4015ff:	6a 14                	push   $0x14
  401601:	85 c0                	test   %eax,%eax
  401603:	5e                   	pop    %esi
  401604:	75 07                	jne    0x40160d
  401606:	b8 00 02 00 00       	mov    $0x200,%eax
  40160b:	eb 06                	jmp    0x401613
  40160d:	3b c6                	cmp    %esi,%eax
  40160f:	7d 07                	jge    0x401618
  401611:	8b c6                	mov    %esi,%eax
  401613:	a3 40 a4 40 00       	mov    %eax,0x40a440
  401618:	6a 04                	push   $0x4
  40161a:	50                   	push   %eax
  40161b:	e8 e0 24 00 00       	call   0x403b00
  401620:	59                   	pop    %ecx
  401621:	a3 38 94 40 00       	mov    %eax,0x409438
  401626:	85 c0                	test   %eax,%eax
  401628:	59                   	pop    %ecx
  401629:	75 21                	jne    0x40164c
  40162b:	6a 04                	push   $0x4
  40162d:	56                   	push   %esi
  40162e:	89 35 40 a4 40 00    	mov    %esi,0x40a440
  401634:	e8 c7 24 00 00       	call   0x403b00
  401639:	59                   	pop    %ecx
  40163a:	a3 38 94 40 00       	mov    %eax,0x409438
  40163f:	85 c0                	test   %eax,%eax
  401641:	59                   	pop    %ecx
  401642:	75 08                	jne    0x40164c
  401644:	6a 1a                	push   $0x1a
  401646:	e8 65 ff ff ff       	call   0x4015b0
  40164b:	59                   	pop    %ecx
  40164c:	33 c9                	xor    %ecx,%ecx
  40164e:	b8 d8 80 40 00       	mov    $0x4080d8,%eax
  401653:	8b 15 38 94 40 00    	mov    0x409438,%edx
  401659:	89 04 11             	mov    %eax,(%ecx,%edx,1)
  40165c:	83 c0 20             	add    $0x20,%eax
  40165f:	83 c1 04             	add    $0x4,%ecx
  401662:	3d 58 83 40 00       	cmp    $0x408358,%eax
  401667:	7c ea                	jl     0x401653
  401669:	33 c9                	xor    %ecx,%ecx
  40166b:	ba e8 80 40 00       	mov    $0x4080e8,%edx
  401670:	8b f1                	mov    %ecx,%esi
  401672:	8b c1                	mov    %ecx,%eax
  401674:	c1 fe 05             	sar    $0x5,%esi
  401677:	83 e0 1f             	and    $0x1f,%eax
  40167a:	8b 34 b5 20 93 40 00 	mov    0x409320(,%esi,4),%esi
  401681:	8d 04 c0             	lea    (%eax,%eax,8),%eax
  401684:	8b 04 86             	mov    (%esi,%eax,4),%eax
  401687:	83 f8 ff             	cmp    $0xffffffff,%eax
  40168a:	74 04                	je     0x401690
  40168c:	85 c0                	test   %eax,%eax
  40168e:	75 03                	jne    0x401693
  401690:	83 0a ff             	orl    $0xffffffff,(%edx)
  401693:	83 c2 20             	add    $0x20,%edx
  401696:	41                   	inc    %ecx
  401697:	81 fa 48 81 40 00    	cmp    $0x408148,%edx
  40169d:	7c d1                	jl     0x401670
  40169f:	5e                   	pop    %esi
  4016a0:	c3                   	ret    
  4016a1:	e8 51 0b 00 00       	call   0x4021f7
  4016a6:	80 3d b0 8d 40 00 00 	cmpb   $0x0,0x408db0
  4016ad:	74 05                	je     0x4016b4
  4016af:	e9 d9 24 00 00       	jmp    0x403b8d
  4016b4:	c3                   	ret    
  4016b5:	8b 44 24 04          	mov    0x4(%esp),%eax
  4016b9:	b9 d8 80 40 00       	mov    $0x4080d8,%ecx
  4016be:	3b c1                	cmp    %ecx,%eax
  4016c0:	72 17                	jb     0x4016d9
  4016c2:	3d 38 83 40 00       	cmp    $0x408338,%eax
  4016c7:	77 10                	ja     0x4016d9
  4016c9:	2b c1                	sub    %ecx,%eax
  4016cb:	c1 f8 05             	sar    $0x5,%eax
  4016ce:	83 c0 1c             	add    $0x1c,%eax
  4016d1:	50                   	push   %eax
  4016d2:	e8 60 25 00 00       	call   0x403c37
  4016d7:	59                   	pop    %ecx
  4016d8:	c3                   	ret    
  4016d9:	83 c0 20             	add    $0x20,%eax
  4016dc:	50                   	push   %eax
  4016dd:	ff 15 0c 70 40 00    	call   *0x40700c
  4016e3:	c3                   	ret    
  4016e4:	8b 44 24 04          	mov    0x4(%esp),%eax
  4016e8:	83 f8 14             	cmp    $0x14,%eax
  4016eb:	7d 0b                	jge    0x4016f8
  4016ed:	83 c0 1c             	add    $0x1c,%eax
  4016f0:	50                   	push   %eax
  4016f1:	e8 41 25 00 00       	call   0x403c37
  4016f6:	59                   	pop    %ecx
  4016f7:	c3                   	ret    
  4016f8:	8b 44 24 08          	mov    0x8(%esp),%eax
  4016fc:	83 c0 20             	add    $0x20,%eax
  4016ff:	50                   	push   %eax
  401700:	ff 15 0c 70 40 00    	call   *0x40700c
  401706:	c3                   	ret    
  401707:	8b 44 24 04          	mov    0x4(%esp),%eax
  40170b:	b9 d8 80 40 00       	mov    $0x4080d8,%ecx
  401710:	3b c1                	cmp    %ecx,%eax
  401712:	72 17                	jb     0x40172b
  401714:	3d 38 83 40 00       	cmp    $0x408338,%eax
  401719:	77 10                	ja     0x40172b
  40171b:	2b c1                	sub    %ecx,%eax
  40171d:	c1 f8 05             	sar    $0x5,%eax
  401720:	83 c0 1c             	add    $0x1c,%eax
  401723:	50                   	push   %eax
  401724:	e8 6f 25 00 00       	call   0x403c98
  401729:	59                   	pop    %ecx
  40172a:	c3                   	ret    
  40172b:	83 c0 20             	add    $0x20,%eax
  40172e:	50                   	push   %eax
  40172f:	ff 15 10 70 40 00    	call   *0x407010
  401735:	c3                   	ret    
  401736:	8b 44 24 04          	mov    0x4(%esp),%eax
  40173a:	83 f8 14             	cmp    $0x14,%eax
  40173d:	7d 0b                	jge    0x40174a
  40173f:	83 c0 1c             	add    $0x1c,%eax
  401742:	50                   	push   %eax
  401743:	e8 50 25 00 00       	call   0x403c98
  401748:	59                   	pop    %ecx
  401749:	c3                   	ret    
  40174a:	8b 44 24 08          	mov    0x8(%esp),%eax
  40174e:	83 c0 20             	add    $0x20,%eax
  401751:	50                   	push   %eax
  401752:	ff 15 10 70 40 00    	call   *0x407010
  401758:	c3                   	ret    
  401759:	56                   	push   %esi
  40175a:	8b 74 24 08          	mov    0x8(%esp),%esi
  40175e:	ff 76 10             	pushl  0x10(%esi)
  401761:	e8 d3 25 00 00       	call   0x403d39
  401766:	85 c0                	test   %eax,%eax
  401768:	59                   	pop    %ecx
  401769:	74 77                	je     0x4017e2
  40176b:	81 fe f8 80 40 00    	cmp    $0x4080f8,%esi
  401771:	75 04                	jne    0x401777
  401773:	33 c0                	xor    %eax,%eax
  401775:	eb 0b                	jmp    0x401782
  401777:	81 fe 18 81 40 00    	cmp    $0x408118,%esi
  40177d:	75 63                	jne    0x4017e2
  40177f:	6a 01                	push   $0x1
  401781:	58                   	pop    %eax
  401782:	ff 05 6c 8d 40 00    	incl   0x408d6c
  401788:	66 f7 46 0c 0c 01    	testw  $0x10c,0xc(%esi)
  40178e:	75 52                	jne    0x4017e2
  401790:	83 3c 85 70 8d 40 00 	cmpl   $0x0,0x408d70(,%eax,4)
  401797:	00 
  401798:	53                   	push   %ebx
  401799:	57                   	push   %edi
  40179a:	8d 3c 85 70 8d 40 00 	lea    0x408d70(,%eax,4),%edi
  4017a1:	bb 00 10 00 00       	mov    $0x1000,%ebx
  4017a6:	75 20                	jne    0x4017c8
  4017a8:	53                   	push   %ebx
  4017a9:	e8 ff 24 00 00       	call   0x403cad
  4017ae:	85 c0                	test   %eax,%eax
  4017b0:	59                   	pop    %ecx
  4017b1:	89 07                	mov    %eax,(%edi)
  4017b3:	75 13                	jne    0x4017c8
  4017b5:	8d 46 14             	lea    0x14(%esi),%eax
  4017b8:	6a 02                	push   $0x2
  4017ba:	89 46 08             	mov    %eax,0x8(%esi)
  4017bd:	89 06                	mov    %eax,(%esi)
  4017bf:	58                   	pop    %eax
  4017c0:	89 46 18             	mov    %eax,0x18(%esi)
  4017c3:	89 46 04             	mov    %eax,0x4(%esi)
  4017c6:	eb 0d                	jmp    0x4017d5
  4017c8:	8b 3f                	mov    (%edi),%edi
  4017ca:	89 5e 18             	mov    %ebx,0x18(%esi)
  4017cd:	89 7e 08             	mov    %edi,0x8(%esi)
  4017d0:	89 3e                	mov    %edi,(%esi)
  4017d2:	89 5e 04             	mov    %ebx,0x4(%esi)
  4017d5:	66 81 4e 0c 02 11    	orw    $0x1102,0xc(%esi)
  4017db:	6a 01                	push   $0x1
  4017dd:	58                   	pop    %eax
  4017de:	5f                   	pop    %edi
  4017df:	5b                   	pop    %ebx
  4017e0:	5e                   	pop    %esi
  4017e1:	c3                   	ret    
  4017e2:	33 c0                	xor    %eax,%eax
  4017e4:	5e                   	pop    %esi
  4017e5:	c3                   	ret    
  4017e6:	83 7c 24 04 00       	cmpl   $0x0,0x4(%esp)
  4017eb:	56                   	push   %esi
  4017ec:	74 20                	je     0x40180e
  4017ee:	8b 74 24 0c          	mov    0xc(%esp),%esi
  4017f2:	f6 46 0d 10          	testb  $0x10,0xd(%esi)
  4017f6:	74 16                	je     0x40180e
  4017f8:	56                   	push   %esi
  4017f9:	e8 9d 09 00 00       	call   0x40219b
  4017fe:	80 66 0d ee          	andb   $0xee,0xd(%esi)
  401802:	83 66 18 00          	andl   $0x0,0x18(%esi)
  401806:	83 26 00             	andl   $0x0,(%esi)
  401809:	83 66 08 00          	andl   $0x0,0x8(%esi)
  40180d:	59                   	pop    %ecx
  40180e:	5e                   	pop    %esi
  40180f:	c3                   	ret    
  401810:	55                   	push   %ebp
  401811:	8b ec                	mov    %esp,%ebp
  401813:	81 ec 48 02 00 00    	sub    $0x248,%esp
  401819:	53                   	push   %ebx
  40181a:	56                   	push   %esi
  40181b:	57                   	push   %edi
  40181c:	8b 7d 0c             	mov    0xc(%ebp),%edi
  40181f:	33 f6                	xor    %esi,%esi
  401821:	8a 1f                	mov    (%edi),%bl
  401823:	47                   	inc    %edi
  401824:	84 db                	test   %bl,%bl
  401826:	89 75 f4             	mov    %esi,-0xc(%ebp)
  401829:	89 75 ec             	mov    %esi,-0x14(%ebp)
  40182c:	89 7d 0c             	mov    %edi,0xc(%ebp)
  40182f:	0f 84 f4 06 00 00    	je     0x401f29
  401835:	8b 4d f0             	mov    -0x10(%ebp),%ecx
  401838:	33 d2                	xor    %edx,%edx
  40183a:	eb 08                	jmp    0x401844
  40183c:	8b 4d f0             	mov    -0x10(%ebp),%ecx
  40183f:	8b 75 d0             	mov    -0x30(%ebp),%esi
  401842:	33 d2                	xor    %edx,%edx
  401844:	39 55 ec             	cmp    %edx,-0x14(%ebp)
  401847:	0f 8c dc 06 00 00    	jl     0x401f29
  40184d:	80 fb 20             	cmp    $0x20,%bl
  401850:	7c 13                	jl     0x401865
  401852:	80 fb 78             	cmp    $0x78,%bl
  401855:	7f 0e                	jg     0x401865
  401857:	0f be c3             	movsbl %bl,%eax
  40185a:	8a 80 cc 70 40 00    	mov    0x4070cc(%eax),%al
  401860:	83 e0 0f             	and    $0xf,%eax
  401863:	eb 02                	jmp    0x401867
  401865:	33 c0                	xor    %eax,%eax
  401867:	0f be 84 c6 ec 70 40 	movsbl 0x4070ec(%esi,%eax,8),%eax
  40186e:	00 
  40186f:	c1 f8 04             	sar    $0x4,%eax
  401872:	83 f8 07             	cmp    $0x7,%eax
  401875:	89 45 d0             	mov    %eax,-0x30(%ebp)
  401878:	0f 87 9a 06 00 00    	ja     0x401f18
  40187e:	ff 24 85 31 1f 40 00 	jmp    *0x401f31(,%eax,4)
  401885:	83 4d f0 ff          	orl    $0xffffffff,-0x10(%ebp)
  401889:	89 55 cc             	mov    %edx,-0x34(%ebp)
  40188c:	89 55 d8             	mov    %edx,-0x28(%ebp)
  40188f:	89 55 e0             	mov    %edx,-0x20(%ebp)
  401892:	89 55 e4             	mov    %edx,-0x1c(%ebp)
  401895:	89 55 fc             	mov    %edx,-0x4(%ebp)
  401898:	89 55 dc             	mov    %edx,-0x24(%ebp)
  40189b:	e9 78 06 00 00       	jmp    0x401f18
  4018a0:	0f be c3             	movsbl %bl,%eax
  4018a3:	83 e8 20             	sub    $0x20,%eax
  4018a6:	74 3b                	je     0x4018e3
  4018a8:	83 e8 03             	sub    $0x3,%eax
  4018ab:	74 2d                	je     0x4018da
  4018ad:	83 e8 08             	sub    $0x8,%eax
  4018b0:	74 1f                	je     0x4018d1
  4018b2:	48                   	dec    %eax
  4018b3:	48                   	dec    %eax
  4018b4:	74 12                	je     0x4018c8
  4018b6:	83 e8 03             	sub    $0x3,%eax
  4018b9:	0f 85 59 06 00 00    	jne    0x401f18
  4018bf:	83 4d fc 08          	orl    $0x8,-0x4(%ebp)
  4018c3:	e9 50 06 00 00       	jmp    0x401f18
  4018c8:	83 4d fc 04          	orl    $0x4,-0x4(%ebp)
  4018cc:	e9 47 06 00 00       	jmp    0x401f18
  4018d1:	83 4d fc 01          	orl    $0x1,-0x4(%ebp)
  4018d5:	e9 3e 06 00 00       	jmp    0x401f18
  4018da:	80 4d fc 80          	orb    $0x80,-0x4(%ebp)
  4018de:	e9 35 06 00 00       	jmp    0x401f18
  4018e3:	83 4d fc 02          	orl    $0x2,-0x4(%ebp)
  4018e7:	e9 2c 06 00 00       	jmp    0x401f18
  4018ec:	80 fb 2a             	cmp    $0x2a,%bl
  4018ef:	75 23                	jne    0x401914
  4018f1:	8d 45 10             	lea    0x10(%ebp),%eax
  4018f4:	50                   	push   %eax
  4018f5:	e8 f5 06 00 00       	call   0x401fef
  4018fa:	85 c0                	test   %eax,%eax
  4018fc:	59                   	pop    %ecx
  4018fd:	89 45 e0             	mov    %eax,-0x20(%ebp)
  401900:	0f 8d 12 06 00 00    	jge    0x401f18
  401906:	83 4d fc 04          	orl    $0x4,-0x4(%ebp)
  40190a:	f7 d8                	neg    %eax
  40190c:	89 45 e0             	mov    %eax,-0x20(%ebp)
  40190f:	e9 04 06 00 00       	jmp    0x401f18
  401914:	8b 45 e0             	mov    -0x20(%ebp),%eax
  401917:	0f be cb             	movsbl %bl,%ecx
  40191a:	8d 04 80             	lea    (%eax,%eax,4),%eax
  40191d:	8d 44 41 d0          	lea    -0x30(%ecx,%eax,2),%eax
  401921:	eb e9                	jmp    0x40190c
  401923:	89 55 f0             	mov    %edx,-0x10(%ebp)
  401926:	e9 ed 05 00 00       	jmp    0x401f18
  40192b:	80 fb 2a             	cmp    $0x2a,%bl
  40192e:	75 1e                	jne    0x40194e
  401930:	8d 45 10             	lea    0x10(%ebp),%eax
  401933:	50                   	push   %eax
  401934:	e8 b6 06 00 00       	call   0x401fef
  401939:	85 c0                	test   %eax,%eax
  40193b:	59                   	pop    %ecx
  40193c:	89 45 f0             	mov    %eax,-0x10(%ebp)
  40193f:	0f 8d d3 05 00 00    	jge    0x401f18
  401945:	83 4d f0 ff          	orl    $0xffffffff,-0x10(%ebp)
  401949:	e9 ca 05 00 00       	jmp    0x401f18
  40194e:	8d 04 89             	lea    (%ecx,%ecx,4),%eax
  401951:	0f be cb             	movsbl %bl,%ecx
  401954:	8d 44 41 d0          	lea    -0x30(%ecx,%eax,2),%eax
  401958:	89 45 f0             	mov    %eax,-0x10(%ebp)
  40195b:	e9 b8 05 00 00       	jmp    0x401f18
  401960:	80 fb 49             	cmp    $0x49,%bl
  401963:	74 2e                	je     0x401993
  401965:	80 fb 68             	cmp    $0x68,%bl
  401968:	74 20                	je     0x40198a
  40196a:	80 fb 6c             	cmp    $0x6c,%bl
  40196d:	74 12                	je     0x401981
  40196f:	80 fb 77             	cmp    $0x77,%bl
  401972:	0f 85 a0 05 00 00    	jne    0x401f18
  401978:	80 4d fd 08          	orb    $0x8,-0x3(%ebp)
  40197c:	e9 97 05 00 00       	jmp    0x401f18
  401981:	83 4d fc 10          	orl    $0x10,-0x4(%ebp)
  401985:	e9 8e 05 00 00       	jmp    0x401f18
  40198a:	83 4d fc 20          	orl    $0x20,-0x4(%ebp)
  40198e:	e9 85 05 00 00       	jmp    0x401f18
  401993:	80 3f 36             	cmpb   $0x36,(%edi)
  401996:	75 14                	jne    0x4019ac
  401998:	80 7f 01 34          	cmpb   $0x34,0x1(%edi)
  40199c:	75 0e                	jne    0x4019ac
  40199e:	47                   	inc    %edi
  40199f:	47                   	inc    %edi
  4019a0:	80 4d fd 80          	orb    $0x80,-0x3(%ebp)
  4019a4:	89 7d 0c             	mov    %edi,0xc(%ebp)
  4019a7:	e9 6c 05 00 00       	jmp    0x401f18
  4019ac:	89 55 d0             	mov    %edx,-0x30(%ebp)
  4019af:	8b 0d 90 85 40 00    	mov    0x408590,%ecx
  4019b5:	89 55 dc             	mov    %edx,-0x24(%ebp)
  4019b8:	0f b6 c3             	movzbl %bl,%eax
  4019bb:	f6 44 41 01 80       	testb  $0x80,0x1(%ecx,%eax,2)
  4019c0:	74 19                	je     0x4019db
  4019c2:	8d 45 ec             	lea    -0x14(%ebp),%eax
  4019c5:	50                   	push   %eax
  4019c6:	ff 75 08             	pushl  0x8(%ebp)
  4019c9:	0f be c3             	movsbl %bl,%eax
  4019cc:	50                   	push   %eax
  4019cd:	e8 7f 05 00 00       	call   0x401f51
  4019d2:	8a 1f                	mov    (%edi),%bl
  4019d4:	83 c4 0c             	add    $0xc,%esp
  4019d7:	47                   	inc    %edi
  4019d8:	89 7d 0c             	mov    %edi,0xc(%ebp)
  4019db:	8d 45 ec             	lea    -0x14(%ebp),%eax
  4019de:	50                   	push   %eax
  4019df:	ff 75 08             	pushl  0x8(%ebp)
  4019e2:	0f be c3             	movsbl %bl,%eax
  4019e5:	50                   	push   %eax
  4019e6:	e8 66 05 00 00       	call   0x401f51
  4019eb:	83 c4 0c             	add    $0xc,%esp
  4019ee:	e9 25 05 00 00       	jmp    0x401f18
  4019f3:	0f be c3             	movsbl %bl,%eax
  4019f6:	83 f8 67             	cmp    $0x67,%eax
  4019f9:	0f 8f 1c 02 00 00    	jg     0x401c1b
  4019ff:	83 f8 65             	cmp    $0x65,%eax
  401a02:	0f 8d 96 00 00 00    	jge    0x401a9e
  401a08:	83 f8 58             	cmp    $0x58,%eax
  401a0b:	0f 8f eb 00 00 00    	jg     0x401afc
  401a11:	0f 84 78 02 00 00    	je     0x401c8f
  401a17:	83 e8 43             	sub    $0x43,%eax
  401a1a:	0f 84 9f 00 00 00    	je     0x401abf
  401a20:	48                   	dec    %eax
  401a21:	48                   	dec    %eax
  401a22:	74 70                	je     0x401a94
  401a24:	48                   	dec    %eax
  401a25:	48                   	dec    %eax
  401a26:	74 6c                	je     0x401a94
  401a28:	83 e8 0c             	sub    $0xc,%eax
  401a2b:	0f 85 e9 03 00 00    	jne    0x401e1a
  401a31:	66 f7 45 fc 30 08    	testw  $0x830,-0x4(%ebp)
  401a37:	75 04                	jne    0x401a3d
  401a39:	80 4d fd 08          	orb    $0x8,-0x3(%ebp)
  401a3d:	8b 75 f0             	mov    -0x10(%ebp),%esi
  401a40:	83 fe ff             	cmp    $0xffffffff,%esi
  401a43:	75 05                	jne    0x401a4a
  401a45:	be ff ff ff 7f       	mov    $0x7fffffff,%esi
  401a4a:	8d 45 10             	lea    0x10(%ebp),%eax
  401a4d:	50                   	push   %eax
  401a4e:	e8 9c 05 00 00       	call   0x401fef
  401a53:	66 f7 45 fc 10 08    	testw  $0x810,-0x4(%ebp)
  401a59:	59                   	pop    %ecx
  401a5a:	8b c8                	mov    %eax,%ecx
  401a5c:	89 4d f8             	mov    %ecx,-0x8(%ebp)
  401a5f:	0f 84 fe 01 00 00    	je     0x401c63
  401a65:	85 c9                	test   %ecx,%ecx
  401a67:	75 09                	jne    0x401a72
  401a69:	8b 0d 5c 83 40 00    	mov    0x40835c,%ecx
  401a6f:	89 4d f8             	mov    %ecx,-0x8(%ebp)
  401a72:	c7 45 dc 01 00 00 00 	movl   $0x1,-0x24(%ebp)
  401a79:	8b c1                	mov    %ecx,%eax
  401a7b:	8b d6                	mov    %esi,%edx
  401a7d:	4e                   	dec    %esi
  401a7e:	85 d2                	test   %edx,%edx
  401a80:	0f 84 d4 01 00 00    	je     0x401c5a
  401a86:	66 83 38 00          	cmpw   $0x0,(%eax)
  401a8a:	0f 84 ca 01 00 00    	je     0x401c5a
  401a90:	40                   	inc    %eax
  401a91:	40                   	inc    %eax
  401a92:	eb e7                	jmp    0x401a7b
  401a94:	c7 45 cc 01 00 00 00 	movl   $0x1,-0x34(%ebp)
  401a9b:	80 c3 20             	add    $0x20,%bl
  401a9e:	83 4d fc 40          	orl    $0x40,-0x4(%ebp)
  401aa2:	8d bd b8 fd ff ff    	lea    -0x248(%ebp),%edi
  401aa8:	3b ca                	cmp    %edx,%ecx
  401aaa:	89 7d f8             	mov    %edi,-0x8(%ebp)
  401aad:	0f 8d cf 00 00 00    	jge    0x401b82
  401ab3:	c7 45 f0 06 00 00 00 	movl   $0x6,-0x10(%ebp)
  401aba:	e9 d1 00 00 00       	jmp    0x401b90
  401abf:	66 f7 45 fc 30 08    	testw  $0x830,-0x4(%ebp)
  401ac5:	75 04                	jne    0x401acb
  401ac7:	80 4d fd 08          	orb    $0x8,-0x3(%ebp)
  401acb:	66 f7 45 fc 10 08    	testw  $0x810,-0x4(%ebp)
  401ad1:	8d 45 10             	lea    0x10(%ebp),%eax
  401ad4:	50                   	push   %eax
  401ad5:	74 3b                	je     0x401b12
  401ad7:	e8 30 05 00 00       	call   0x40200c
  401adc:	50                   	push   %eax
  401add:	8d 85 b8 fd ff ff    	lea    -0x248(%ebp),%eax
  401ae3:	50                   	push   %eax
  401ae4:	e8 79 22 00 00       	call   0x403d62
  401ae9:	83 c4 0c             	add    $0xc,%esp
  401aec:	89 45 f4             	mov    %eax,-0xc(%ebp)
  401aef:	85 c0                	test   %eax,%eax
  401af1:	7d 32                	jge    0x401b25
  401af3:	c7 45 d8 01 00 00 00 	movl   $0x1,-0x28(%ebp)
  401afa:	eb 29                	jmp    0x401b25
  401afc:	83 e8 5a             	sub    $0x5a,%eax
  401aff:	74 32                	je     0x401b33
  401b01:	83 e8 09             	sub    $0x9,%eax
  401b04:	74 c5                	je     0x401acb
  401b06:	48                   	dec    %eax
  401b07:	0f 84 e8 01 00 00    	je     0x401cf5
  401b0d:	e9 08 03 00 00       	jmp    0x401e1a
  401b12:	e8 d8 04 00 00       	call   0x401fef
  401b17:	59                   	pop    %ecx
  401b18:	88 85 b8 fd ff ff    	mov    %al,-0x248(%ebp)
  401b1e:	c7 45 f4 01 00 00 00 	movl   $0x1,-0xc(%ebp)
  401b25:	8d 85 b8 fd ff ff    	lea    -0x248(%ebp),%eax
  401b2b:	89 45 f8             	mov    %eax,-0x8(%ebp)
  401b2e:	e9 e7 02 00 00       	jmp    0x401e1a
  401b33:	8d 45 10             	lea    0x10(%ebp),%eax
  401b36:	50                   	push   %eax
  401b37:	e8 b3 04 00 00       	call   0x401fef
  401b3c:	85 c0                	test   %eax,%eax
  401b3e:	59                   	pop    %ecx
  401b3f:	74 33                	je     0x401b74
  401b41:	8b 48 04             	mov    0x4(%eax),%ecx
  401b44:	85 c9                	test   %ecx,%ecx
  401b46:	74 2c                	je     0x401b74
  401b48:	f6 45 fd 08          	testb  $0x8,-0x3(%ebp)
  401b4c:	74 17                	je     0x401b65
  401b4e:	0f bf 00             	movswl (%eax),%eax
  401b51:	d1 e8                	shr    %eax
  401b53:	89 4d f8             	mov    %ecx,-0x8(%ebp)
  401b56:	89 45 f4             	mov    %eax,-0xc(%ebp)
  401b59:	c7 45 dc 01 00 00 00 	movl   $0x1,-0x24(%ebp)
  401b60:	e9 b5 02 00 00       	jmp    0x401e1a
  401b65:	83 65 dc 00          	andl   $0x0,-0x24(%ebp)
  401b69:	89 4d f8             	mov    %ecx,-0x8(%ebp)
  401b6c:	0f bf 00             	movswl (%eax),%eax
  401b6f:	e9 a3 02 00 00       	jmp    0x401e17
  401b74:	a1 58 83 40 00       	mov    0x408358,%eax
  401b79:	89 45 f8             	mov    %eax,-0x8(%ebp)
  401b7c:	50                   	push   %eax
  401b7d:	e9 8e 00 00 00       	jmp    0x401c10
  401b82:	75 0c                	jne    0x401b90
  401b84:	80 fb 67             	cmp    $0x67,%bl
  401b87:	75 07                	jne    0x401b90
  401b89:	c7 45 f0 01 00 00 00 	movl   $0x1,-0x10(%ebp)
  401b90:	8b 45 10             	mov    0x10(%ebp),%eax
  401b93:	ff 75 cc             	pushl  -0x34(%ebp)
  401b96:	83 c0 08             	add    $0x8,%eax
  401b99:	89 45 10             	mov    %eax,0x10(%ebp)
  401b9c:	ff 75 f0             	pushl  -0x10(%ebp)
  401b9f:	8b 48 f8             	mov    -0x8(%eax),%ecx
  401ba2:	89 4d b8             	mov    %ecx,-0x48(%ebp)
  401ba5:	8b 40 fc             	mov    -0x4(%eax),%eax
  401ba8:	89 45 bc             	mov    %eax,-0x44(%ebp)
  401bab:	0f be c3             	movsbl %bl,%eax
  401bae:	50                   	push   %eax
  401baf:	8d 85 b8 fd ff ff    	lea    -0x248(%ebp),%eax
  401bb5:	50                   	push   %eax
  401bb6:	8d 45 b8             	lea    -0x48(%ebp),%eax
  401bb9:	50                   	push   %eax
  401bba:	ff 15 78 85 40 00    	call   *0x408578
  401bc0:	8b 75 fc             	mov    -0x4(%ebp),%esi
  401bc3:	83 c4 14             	add    $0x14,%esp
  401bc6:	81 e6 80 00 00 00    	and    $0x80,%esi
  401bcc:	74 14                	je     0x401be2
  401bce:	83 7d f0 00          	cmpl   $0x0,-0x10(%ebp)
  401bd2:	75 0e                	jne    0x401be2
  401bd4:	8d 85 b8 fd ff ff    	lea    -0x248(%ebp),%eax
  401bda:	50                   	push   %eax
  401bdb:	ff 15 84 85 40 00    	call   *0x408584
  401be1:	59                   	pop    %ecx
  401be2:	80 fb 67             	cmp    $0x67,%bl
  401be5:	75 12                	jne    0x401bf9
  401be7:	85 f6                	test   %esi,%esi
  401be9:	75 0e                	jne    0x401bf9
  401beb:	8d 85 b8 fd ff ff    	lea    -0x248(%ebp),%eax
  401bf1:	50                   	push   %eax
  401bf2:	ff 15 7c 85 40 00    	call   *0x40857c
  401bf8:	59                   	pop    %ecx
  401bf9:	80 bd b8 fd ff ff 2d 	cmpb   $0x2d,-0x248(%ebp)
  401c00:	75 0d                	jne    0x401c0f
  401c02:	80 4d fd 01          	orb    $0x1,-0x3(%ebp)
  401c06:	8d bd b9 fd ff ff    	lea    -0x247(%ebp),%edi
  401c0c:	89 7d f8             	mov    %edi,-0x8(%ebp)
  401c0f:	57                   	push   %edi
  401c10:	e8 7b 11 00 00       	call   0x402d90
  401c15:	59                   	pop    %ecx
  401c16:	e9 fc 01 00 00       	jmp    0x401e17
  401c1b:	83 e8 69             	sub    $0x69,%eax
  401c1e:	0f 84 d1 00 00 00    	je     0x401cf5
  401c24:	83 e8 05             	sub    $0x5,%eax
  401c27:	0f 84 9e 00 00 00    	je     0x401ccb
  401c2d:	48                   	dec    %eax
  401c2e:	0f 84 84 00 00 00    	je     0x401cb8
  401c34:	48                   	dec    %eax
  401c35:	74 51                	je     0x401c88
  401c37:	83 e8 03             	sub    $0x3,%eax
  401c3a:	0f 84 fd fd ff ff    	je     0x401a3d
  401c40:	48                   	dec    %eax
  401c41:	48                   	dec    %eax
  401c42:	0f 84 b1 00 00 00    	je     0x401cf9
  401c48:	83 e8 03             	sub    $0x3,%eax
  401c4b:	0f 85 c9 01 00 00    	jne    0x401e1a
  401c51:	c7 45 d4 27 00 00 00 	movl   $0x27,-0x2c(%ebp)
  401c58:	eb 3c                	jmp    0x401c96
  401c5a:	2b c1                	sub    %ecx,%eax
  401c5c:	d1 f8                	sar    %eax
  401c5e:	e9 b4 01 00 00       	jmp    0x401e17
  401c63:	85 c9                	test   %ecx,%ecx
  401c65:	75 09                	jne    0x401c70
  401c67:	8b 0d 58 83 40 00    	mov    0x408358,%ecx
  401c6d:	89 4d f8             	mov    %ecx,-0x8(%ebp)
  401c70:	8b c1                	mov    %ecx,%eax
  401c72:	8b d6                	mov    %esi,%edx
  401c74:	4e                   	dec    %esi
  401c75:	85 d2                	test   %edx,%edx
  401c77:	74 08                	je     0x401c81
  401c79:	80 38 00             	cmpb   $0x0,(%eax)
  401c7c:	74 03                	je     0x401c81
  401c7e:	40                   	inc    %eax
  401c7f:	eb f1                	jmp    0x401c72
  401c81:	2b c1                	sub    %ecx,%eax
  401c83:	e9 8f 01 00 00       	jmp    0x401e17
  401c88:	c7 45 f0 08 00 00 00 	movl   $0x8,-0x10(%ebp)
  401c8f:	c7 45 d4 07 00 00 00 	movl   $0x7,-0x2c(%ebp)
  401c96:	f6 45 fc 80          	testb  $0x80,-0x4(%ebp)
  401c9a:	c7 45 f4 10 00 00 00 	movl   $0x10,-0xc(%ebp)
  401ca1:	74 5d                	je     0x401d00
  401ca3:	8a 45 d4             	mov    -0x2c(%ebp),%al
  401ca6:	c6 45 ea 30          	movb   $0x30,-0x16(%ebp)
  401caa:	04 51                	add    $0x51,%al
  401cac:	c7 45 e4 02 00 00 00 	movl   $0x2,-0x1c(%ebp)
  401cb3:	88 45 eb             	mov    %al,-0x15(%ebp)
  401cb6:	eb 48                	jmp    0x401d00
  401cb8:	f6 45 fc 80          	testb  $0x80,-0x4(%ebp)
  401cbc:	c7 45 f4 08 00 00 00 	movl   $0x8,-0xc(%ebp)
  401cc3:	74 3b                	je     0x401d00
  401cc5:	80 4d fd 02          	orb    $0x2,-0x3(%ebp)
  401cc9:	eb 35                	jmp    0x401d00
  401ccb:	8d 45 10             	lea    0x10(%ebp),%eax
  401cce:	50                   	push   %eax
  401ccf:	e8 1b 03 00 00       	call   0x401fef
  401cd4:	f6 45 fc 20          	testb  $0x20,-0x4(%ebp)
  401cd8:	59                   	pop    %ecx
  401cd9:	74 09                	je     0x401ce4
  401cdb:	66 8b 4d ec          	mov    -0x14(%ebp),%cx
  401cdf:	66 89 08             	mov    %cx,(%eax)
  401ce2:	eb 05                	jmp    0x401ce9
  401ce4:	8b 4d ec             	mov    -0x14(%ebp),%ecx
  401ce7:	89 08                	mov    %ecx,(%eax)
  401ce9:	c7 45 d8 01 00 00 00 	movl   $0x1,-0x28(%ebp)
  401cf0:	e9 23 02 00 00       	jmp    0x401f18
  401cf5:	83 4d fc 40          	orl    $0x40,-0x4(%ebp)
  401cf9:	c7 45 f4 0a 00 00 00 	movl   $0xa,-0xc(%ebp)
  401d00:	f6 45 fd 80          	testb  $0x80,-0x3(%ebp)
  401d04:	74 0c                	je     0x401d12
  401d06:	8d 45 10             	lea    0x10(%ebp),%eax
  401d09:	50                   	push   %eax
  401d0a:	e8 ed 02 00 00       	call   0x401ffc
  401d0f:	59                   	pop    %ecx
  401d10:	eb 41                	jmp    0x401d53
  401d12:	f6 45 fc 20          	testb  $0x20,-0x4(%ebp)
  401d16:	74 21                	je     0x401d39
  401d18:	f6 45 fc 40          	testb  $0x40,-0x4(%ebp)
  401d1c:	8d 45 10             	lea    0x10(%ebp),%eax
  401d1f:	50                   	push   %eax
  401d20:	74 0c                	je     0x401d2e
  401d22:	e8 c8 02 00 00       	call   0x401fef
  401d27:	59                   	pop    %ecx
  401d28:	0f bf c0             	movswl %ax,%eax
  401d2b:	99                   	cltd   
  401d2c:	eb 25                	jmp    0x401d53
  401d2e:	e8 bc 02 00 00       	call   0x401fef
  401d33:	59                   	pop    %ecx
  401d34:	0f b7 c0             	movzwl %ax,%eax
  401d37:	eb f2                	jmp    0x401d2b
  401d39:	f6 45 fc 40          	testb  $0x40,-0x4(%ebp)
  401d3d:	8d 45 10             	lea    0x10(%ebp),%eax
  401d40:	50                   	push   %eax
  401d41:	74 08                	je     0x401d4b
  401d43:	e8 a7 02 00 00       	call   0x401fef
  401d48:	59                   	pop    %ecx
  401d49:	eb e0                	jmp    0x401d2b
  401d4b:	e8 9f 02 00 00       	call   0x401fef
  401d50:	59                   	pop    %ecx
  401d51:	33 d2                	xor    %edx,%edx
  401d53:	f6 45 fc 40          	testb  $0x40,-0x4(%ebp)
  401d57:	74 1b                	je     0x401d74
  401d59:	85 d2                	test   %edx,%edx
  401d5b:	7f 17                	jg     0x401d74
  401d5d:	7c 04                	jl     0x401d63
  401d5f:	85 c0                	test   %eax,%eax
  401d61:	73 11                	jae    0x401d74
  401d63:	f7 d8                	neg    %eax
  401d65:	83 d2 00             	adc    $0x0,%edx
  401d68:	8b f0                	mov    %eax,%esi
  401d6a:	f7 da                	neg    %edx
  401d6c:	80 4d fd 01          	orb    $0x1,-0x3(%ebp)
  401d70:	8b fa                	mov    %edx,%edi
  401d72:	eb 04                	jmp    0x401d78
  401d74:	8b f0                	mov    %eax,%esi
  401d76:	8b fa                	mov    %edx,%edi
  401d78:	f6 45 fd 80          	testb  $0x80,-0x3(%ebp)
  401d7c:	75 03                	jne    0x401d81
  401d7e:	83 e7 00             	and    $0x0,%edi
  401d81:	83 7d f0 00          	cmpl   $0x0,-0x10(%ebp)
  401d85:	7d 09                	jge    0x401d90
  401d87:	c7 45 f0 01 00 00 00 	movl   $0x1,-0x10(%ebp)
  401d8e:	eb 04                	jmp    0x401d94
  401d90:	83 65 fc f7          	andl   $0xfffffff7,-0x4(%ebp)
  401d94:	8b c6                	mov    %esi,%eax
  401d96:	0b c7                	or     %edi,%eax
  401d98:	75 04                	jne    0x401d9e
  401d9a:	83 65 e4 00          	andl   $0x0,-0x1c(%ebp)
  401d9e:	8d 45 b7             	lea    -0x49(%ebp),%eax
  401da1:	89 45 f8             	mov    %eax,-0x8(%ebp)
  401da4:	8b 45 f0             	mov    -0x10(%ebp),%eax
  401da7:	ff 4d f0             	decl   -0x10(%ebp)
  401daa:	85 c0                	test   %eax,%eax
  401dac:	7f 06                	jg     0x401db4
  401dae:	8b c6                	mov    %esi,%eax
  401db0:	0b c7                	or     %edi,%eax
  401db2:	74 3b                	je     0x401def
  401db4:	8b 45 f4             	mov    -0xc(%ebp),%eax
  401db7:	99                   	cltd   
  401db8:	52                   	push   %edx
  401db9:	50                   	push   %eax
  401dba:	57                   	push   %edi
  401dbb:	56                   	push   %esi
  401dbc:	89 45 c0             	mov    %eax,-0x40(%ebp)
  401dbf:	89 55 c4             	mov    %edx,-0x3c(%ebp)
  401dc2:	e8 d9 20 00 00       	call   0x403ea0
  401dc7:	ff 75 c4             	pushl  -0x3c(%ebp)
  401dca:	8b d8                	mov    %eax,%ebx
  401dcc:	83 c3 30             	add    $0x30,%ebx
  401dcf:	ff 75 c0             	pushl  -0x40(%ebp)
  401dd2:	57                   	push   %edi
  401dd3:	56                   	push   %esi
  401dd4:	e8 57 20 00 00       	call   0x403e30
  401dd9:	83 fb 39             	cmp    $0x39,%ebx
  401ddc:	8b f0                	mov    %eax,%esi
  401dde:	8b fa                	mov    %edx,%edi
  401de0:	7e 03                	jle    0x401de5
  401de2:	03 5d d4             	add    -0x2c(%ebp),%ebx
  401de5:	8b 45 f8             	mov    -0x8(%ebp),%eax
  401de8:	ff 4d f8             	decl   -0x8(%ebp)
  401deb:	88 18                	mov    %bl,(%eax)
  401ded:	eb b5                	jmp    0x401da4
  401def:	8d 45 b7             	lea    -0x49(%ebp),%eax
  401df2:	2b 45 f8             	sub    -0x8(%ebp),%eax
  401df5:	ff 45 f8             	incl   -0x8(%ebp)
  401df8:	f6 45 fd 02          	testb  $0x2,-0x3(%ebp)
  401dfc:	89 45 f4             	mov    %eax,-0xc(%ebp)
  401dff:	74 19                	je     0x401e1a
  401e01:	8b 4d f8             	mov    -0x8(%ebp),%ecx
  401e04:	80 39 30             	cmpb   $0x30,(%ecx)
  401e07:	75 04                	jne    0x401e0d
  401e09:	85 c0                	test   %eax,%eax
  401e0b:	75 0d                	jne    0x401e1a
  401e0d:	ff 4d f8             	decl   -0x8(%ebp)
  401e10:	40                   	inc    %eax
  401e11:	8b 4d f8             	mov    -0x8(%ebp),%ecx
  401e14:	c6 01 30             	movb   $0x30,(%ecx)
  401e17:	89 45 f4             	mov    %eax,-0xc(%ebp)
  401e1a:	83 7d d8 00          	cmpl   $0x0,-0x28(%ebp)
  401e1e:	0f 85 f4 00 00 00    	jne    0x401f18
  401e24:	8b 5d fc             	mov    -0x4(%ebp),%ebx
  401e27:	f6 c3 40             	test   $0x40,%bl
  401e2a:	74 26                	je     0x401e52
  401e2c:	f6 c7 01             	test   $0x1,%bh
  401e2f:	74 06                	je     0x401e37
  401e31:	c6 45 ea 2d          	movb   $0x2d,-0x16(%ebp)
  401e35:	eb 14                	jmp    0x401e4b
  401e37:	f6 c3 01             	test   $0x1,%bl
  401e3a:	74 06                	je     0x401e42
  401e3c:	c6 45 ea 2b          	movb   $0x2b,-0x16(%ebp)
  401e40:	eb 09                	jmp    0x401e4b
  401e42:	f6 c3 02             	test   $0x2,%bl
  401e45:	74 0b                	je     0x401e52
  401e47:	c6 45 ea 20          	movb   $0x20,-0x16(%ebp)
  401e4b:	c7 45 e4 01 00 00 00 	movl   $0x1,-0x1c(%ebp)
  401e52:	8b 75 e0             	mov    -0x20(%ebp),%esi
  401e55:	2b 75 e4             	sub    -0x1c(%ebp),%esi
  401e58:	2b 75 f4             	sub    -0xc(%ebp),%esi
  401e5b:	f6 c3 0c             	test   $0xc,%bl
  401e5e:	75 12                	jne    0x401e72
  401e60:	8d 45 ec             	lea    -0x14(%ebp),%eax
  401e63:	50                   	push   %eax
  401e64:	ff 75 08             	pushl  0x8(%ebp)
  401e67:	56                   	push   %esi
  401e68:	6a 20                	push   $0x20
  401e6a:	e8 17 01 00 00       	call   0x401f86
  401e6f:	83 c4 10             	add    $0x10,%esp
  401e72:	8d 45 ec             	lea    -0x14(%ebp),%eax
  401e75:	50                   	push   %eax
  401e76:	8d 45 ea             	lea    -0x16(%ebp),%eax
  401e79:	ff 75 08             	pushl  0x8(%ebp)
  401e7c:	ff 75 e4             	pushl  -0x1c(%ebp)
  401e7f:	50                   	push   %eax
  401e80:	e8 32 01 00 00       	call   0x401fb7
  401e85:	83 c4 10             	add    $0x10,%esp
  401e88:	f6 c3 08             	test   $0x8,%bl
  401e8b:	74 17                	je     0x401ea4
  401e8d:	f6 c3 04             	test   $0x4,%bl
  401e90:	75 12                	jne    0x401ea4
  401e92:	8d 45 ec             	lea    -0x14(%ebp),%eax
  401e95:	50                   	push   %eax
  401e96:	ff 75 08             	pushl  0x8(%ebp)
  401e99:	56                   	push   %esi
  401e9a:	6a 30                	push   $0x30
  401e9c:	e8 e5 00 00 00       	call   0x401f86
  401ea1:	83 c4 10             	add    $0x10,%esp
  401ea4:	83 7d dc 00          	cmpl   $0x0,-0x24(%ebp)
  401ea8:	74 41                	je     0x401eeb
  401eaa:	83 7d f4 00          	cmpl   $0x0,-0xc(%ebp)
  401eae:	7e 3b                	jle    0x401eeb
  401eb0:	8b 45 f4             	mov    -0xc(%ebp),%eax
  401eb3:	8b 5d f8             	mov    -0x8(%ebp),%ebx
  401eb6:	8d 78 ff             	lea    -0x1(%eax),%edi
  401eb9:	66 8b 03             	mov    (%ebx),%ax
  401ebc:	43                   	inc    %ebx
  401ebd:	50                   	push   %eax
  401ebe:	8d 45 c8             	lea    -0x38(%ebp),%eax
  401ec1:	50                   	push   %eax
  401ec2:	43                   	inc    %ebx
  401ec3:	e8 9a 1e 00 00       	call   0x403d62
  401ec8:	59                   	pop    %ecx
  401ec9:	85 c0                	test   %eax,%eax
  401ecb:	59                   	pop    %ecx
  401ecc:	7e 32                	jle    0x401f00
  401ece:	8d 4d ec             	lea    -0x14(%ebp),%ecx
  401ed1:	51                   	push   %ecx
  401ed2:	ff 75 08             	pushl  0x8(%ebp)
  401ed5:	50                   	push   %eax
  401ed6:	8d 45 c8             	lea    -0x38(%ebp),%eax
  401ed9:	50                   	push   %eax
  401eda:	e8 d8 00 00 00       	call   0x401fb7
  401edf:	83 c4 10             	add    $0x10,%esp
  401ee2:	8b c7                	mov    %edi,%eax
  401ee4:	4f                   	dec    %edi
  401ee5:	85 c0                	test   %eax,%eax
  401ee7:	75 d0                	jne    0x401eb9
  401ee9:	eb 15                	jmp    0x401f00
  401eeb:	8d 45 ec             	lea    -0x14(%ebp),%eax
  401eee:	50                   	push   %eax
  401eef:	ff 75 08             	pushl  0x8(%ebp)
  401ef2:	ff 75 f4             	pushl  -0xc(%ebp)
  401ef5:	ff 75 f8             	pushl  -0x8(%ebp)
  401ef8:	e8 ba 00 00 00       	call   0x401fb7
  401efd:	83 c4 10             	add    $0x10,%esp
  401f00:	f6 45 fc 04          	testb  $0x4,-0x4(%ebp)
  401f04:	74 12                	je     0x401f18
  401f06:	8d 45 ec             	lea    -0x14(%ebp),%eax
  401f09:	50                   	push   %eax
  401f0a:	ff 75 08             	pushl  0x8(%ebp)
  401f0d:	56                   	push   %esi
  401f0e:	6a 20                	push   $0x20
  401f10:	e8 71 00 00 00       	call   0x401f86
  401f15:	83 c4 10             	add    $0x10,%esp
  401f18:	8b 7d 0c             	mov    0xc(%ebp),%edi
  401f1b:	8a 1f                	mov    (%edi),%bl
  401f1d:	47                   	inc    %edi
  401f1e:	84 db                	test   %bl,%bl
  401f20:	89 7d 0c             	mov    %edi,0xc(%ebp)
  401f23:	0f 85 13 f9 ff ff    	jne    0x40183c
  401f29:	8b 45 ec             	mov    -0x14(%ebp),%eax
  401f2c:	5f                   	pop    %edi
  401f2d:	5e                   	pop    %esi
  401f2e:	5b                   	pop    %ebx
  401f2f:	c9                   	leave  
  401f30:	c3                   	ret    
  401f31:	af                   	scas   %es:(%edi),%eax
  401f32:	19 40 00             	sbb    %eax,0x0(%eax)
  401f35:	85 18                	test   %ebx,(%eax)
  401f37:	40                   	inc    %eax
  401f38:	00 a0 18 40 00 ec    	add    %ah,-0x13ffbfe8(%eax)
  401f3e:	18 40 00             	sbb    %al,0x0(%eax)
  401f41:	23 19                	and    (%ecx),%ebx
  401f43:	40                   	inc    %eax
  401f44:	00 2b                	add    %ch,(%ebx)
  401f46:	19 40 00             	sbb    %eax,0x0(%eax)
  401f49:	60                   	pusha  
  401f4a:	19 40 00             	sbb    %eax,0x0(%eax)
  401f4d:	f3 19 40 00          	repz sbb %eax,0x0(%eax)
  401f51:	55                   	push   %ebp
  401f52:	8b ec                	mov    %esp,%ebp
  401f54:	8b 4d 0c             	mov    0xc(%ebp),%ecx
  401f57:	ff 49 04             	decl   0x4(%ecx)
  401f5a:	78 0e                	js     0x401f6a
  401f5c:	8b 11                	mov    (%ecx),%edx
  401f5e:	8a 45 08             	mov    0x8(%ebp),%al
  401f61:	88 02                	mov    %al,(%edx)
  401f63:	ff 01                	incl   (%ecx)
  401f65:	0f b6 c0             	movzbl %al,%eax
  401f68:	eb 0b                	jmp    0x401f75
  401f6a:	51                   	push   %ecx
  401f6b:	ff 75 08             	pushl  0x8(%ebp)
  401f6e:	e8 f6 0b 00 00       	call   0x402b69
  401f73:	59                   	pop    %ecx
  401f74:	59                   	pop    %ecx
  401f75:	83 f8 ff             	cmp    $0xffffffff,%eax
  401f78:	8b 45 10             	mov    0x10(%ebp),%eax
  401f7b:	75 05                	jne    0x401f82
  401f7d:	83 08 ff             	orl    $0xffffffff,(%eax)
  401f80:	5d                   	pop    %ebp
  401f81:	c3                   	ret    
  401f82:	ff 00                	incl   (%eax)
  401f84:	5d                   	pop    %ebp
  401f85:	c3                   	ret    
  401f86:	56                   	push   %esi
  401f87:	57                   	push   %edi
  401f88:	8b 7c 24 10          	mov    0x10(%esp),%edi
  401f8c:	8b c7                	mov    %edi,%eax
  401f8e:	4f                   	dec    %edi
  401f8f:	85 c0                	test   %eax,%eax
  401f91:	7e 21                	jle    0x401fb4
  401f93:	8b 74 24 18          	mov    0x18(%esp),%esi
  401f97:	56                   	push   %esi
  401f98:	ff 74 24 18          	pushl  0x18(%esp)
  401f9c:	ff 74 24 14          	pushl  0x14(%esp)
  401fa0:	e8 ac ff ff ff       	call   0x401f51
  401fa5:	83 c4 0c             	add    $0xc,%esp
  401fa8:	83 3e ff             	cmpl   $0xffffffff,(%esi)
  401fab:	74 07                	je     0x401fb4
  401fad:	8b c7                	mov    %edi,%eax
  401faf:	4f                   	dec    %edi
  401fb0:	85 c0                	test   %eax,%eax
  401fb2:	7f e3                	jg     0x401f97
  401fb4:	5f                   	pop    %edi
  401fb5:	5e                   	pop    %esi
  401fb6:	c3                   	ret    
  401fb7:	53                   	push   %ebx
  401fb8:	8b 5c 24 0c          	mov    0xc(%esp),%ebx
  401fbc:	8b c3                	mov    %ebx,%eax
  401fbe:	4b                   	dec    %ebx
  401fbf:	56                   	push   %esi
  401fc0:	57                   	push   %edi
  401fc1:	85 c0                	test   %eax,%eax
  401fc3:	7e 26                	jle    0x401feb
  401fc5:	8b 7c 24 1c          	mov    0x1c(%esp),%edi
  401fc9:	8b 74 24 10          	mov    0x10(%esp),%esi
  401fcd:	0f be 06             	movsbl (%esi),%eax
  401fd0:	57                   	push   %edi
  401fd1:	46                   	inc    %esi
  401fd2:	ff 74 24 1c          	pushl  0x1c(%esp)
  401fd6:	50                   	push   %eax
  401fd7:	e8 75 ff ff ff       	call   0x401f51
  401fdc:	83 c4 0c             	add    $0xc,%esp
  401fdf:	83 3f ff             	cmpl   $0xffffffff,(%edi)
  401fe2:	74 07                	je     0x401feb
  401fe4:	8b c3                	mov    %ebx,%eax
  401fe6:	4b                   	dec    %ebx
  401fe7:	85 c0                	test   %eax,%eax
  401fe9:	7f e2                	jg     0x401fcd
  401feb:	5f                   	pop    %edi
  401fec:	5e                   	pop    %esi
  401fed:	5b                   	pop    %ebx
  401fee:	c3                   	ret    
  401fef:	8b 44 24 04          	mov    0x4(%esp),%eax
  401ff3:	83 00 04             	addl   $0x4,(%eax)
  401ff6:	8b 00                	mov    (%eax),%eax
  401ff8:	8b 40 fc             	mov    -0x4(%eax),%eax
  401ffb:	c3                   	ret    
  401ffc:	8b 44 24 04          	mov    0x4(%esp),%eax
  402000:	83 00 08             	addl   $0x8,(%eax)
  402003:	8b 08                	mov    (%eax),%ecx
  402005:	8b 41 f8             	mov    -0x8(%ecx),%eax
  402008:	8b 51 fc             	mov    -0x4(%ecx),%edx
  40200b:	c3                   	ret    
  40200c:	8b 44 24 04          	mov    0x4(%esp),%eax
  402010:	83 00 04             	addl   $0x4,(%eax)
  402013:	8b 00                	mov    (%eax),%eax
  402015:	66 8b 40 fc          	mov    -0x4(%eax),%ax
  402019:	c3                   	ret    
  40201a:	56                   	push   %esi
  40201b:	8b 74 24 08          	mov    0x8(%esp),%esi
  40201f:	85 f6                	test   %esi,%esi
  402021:	74 3d                	je     0x402060
  402023:	6a 09                	push   $0x9
  402025:	e8 0d 1c 00 00       	call   0x403c37
  40202a:	56                   	push   %esi
  40202b:	e8 23 1f 00 00       	call   0x403f53
  402030:	59                   	pop    %ecx
  402031:	85 c0                	test   %eax,%eax
  402033:	59                   	pop    %ecx
  402034:	74 13                	je     0x402049
  402036:	56                   	push   %esi
  402037:	50                   	push   %eax
  402038:	e8 41 1f 00 00       	call   0x403f7e
  40203d:	6a 09                	push   $0x9
  40203f:	e8 54 1c 00 00       	call   0x403c98
  402044:	83 c4 0c             	add    $0xc,%esp
  402047:	5e                   	pop    %esi
  402048:	c3                   	ret    
  402049:	6a 09                	push   $0x9
  40204b:	e8 48 1c 00 00       	call   0x403c98
  402050:	59                   	pop    %ecx
  402051:	56                   	push   %esi
  402052:	6a 00                	push   $0x0
  402054:	ff 35 00 93 40 00    	pushl  0x409300
  40205a:	ff 15 14 70 40 00    	call   *0x407014
  402060:	5e                   	pop    %esi
  402061:	c3                   	ret    
  402062:	56                   	push   %esi
  402063:	8b 74 24 08          	mov    0x8(%esp),%esi
  402067:	3b 35 20 94 40 00    	cmp    0x409420,%esi
  40206d:	73 38                	jae    0x4020a7
  40206f:	8b ce                	mov    %esi,%ecx
  402071:	8b c6                	mov    %esi,%eax
  402073:	c1 f9 05             	sar    $0x5,%ecx
  402076:	83 e0 1f             	and    $0x1f,%eax
  402079:	8b 0c 8d 20 93 40 00 	mov    0x409320(,%ecx,4),%ecx
  402080:	8d 04 c0             	lea    (%eax,%eax,8),%eax
  402083:	f6 44 81 04 01       	testb  $0x1,0x4(%ecx,%eax,4)
  402088:	74 1d                	je     0x4020a7
  40208a:	57                   	push   %edi
  40208b:	56                   	push   %esi
  40208c:	e8 b2 29 00 00       	call   0x404a43
  402091:	56                   	push   %esi
  402092:	e8 28 00 00 00       	call   0x4020bf
  402097:	56                   	push   %esi
  402098:	8b f8                	mov    %eax,%edi
  40209a:	e8 03 2a 00 00       	call   0x404aa2
  40209f:	83 c4 0c             	add    $0xc,%esp
  4020a2:	8b c7                	mov    %edi,%eax
  4020a4:	5f                   	pop    %edi
  4020a5:	5e                   	pop    %esi
  4020a6:	c3                   	ret    
  4020a7:	e8 25 27 00 00       	call   0x4047d1
  4020ac:	c7 00 09 00 00 00    	movl   $0x9,(%eax)
  4020b2:	e8 23 27 00 00       	call   0x4047da
  4020b7:	83 20 00             	andl   $0x0,(%eax)
  4020ba:	83 c8 ff             	or     $0xffffffff,%eax
  4020bd:	5e                   	pop    %esi
  4020be:	c3                   	ret    
  4020bf:	56                   	push   %esi
  4020c0:	8b 74 24 08          	mov    0x8(%esp),%esi
  4020c4:	57                   	push   %edi
  4020c5:	56                   	push   %esi
  4020c6:	e8 36 29 00 00       	call   0x404a01
  4020cb:	83 f8 ff             	cmp    $0xffffffff,%eax
  4020ce:	59                   	pop    %ecx
  4020cf:	74 3c                	je     0x40210d
  4020d1:	83 fe 01             	cmp    $0x1,%esi
  4020d4:	74 05                	je     0x4020db
  4020d6:	83 fe 02             	cmp    $0x2,%esi
  4020d9:	75 16                	jne    0x4020f1
  4020db:	6a 02                	push   $0x2
  4020dd:	e8 1f 29 00 00       	call   0x404a01
  4020e2:	6a 01                	push   $0x1
  4020e4:	8b f8                	mov    %eax,%edi
  4020e6:	e8 16 29 00 00       	call   0x404a01
  4020eb:	59                   	pop    %ecx
  4020ec:	3b c7                	cmp    %edi,%eax
  4020ee:	59                   	pop    %ecx
  4020ef:	74 1c                	je     0x40210d
  4020f1:	56                   	push   %esi
  4020f2:	e8 0a 29 00 00       	call   0x404a01
  4020f7:	59                   	pop    %ecx
  4020f8:	50                   	push   %eax
  4020f9:	ff 15 1c 70 40 00    	call   *0x40701c
  4020ff:	85 c0                	test   %eax,%eax
  402101:	75 0a                	jne    0x40210d
  402103:	ff 15 18 70 40 00    	call   *0x407018
  402109:	8b f8                	mov    %eax,%edi
  40210b:	eb 02                	jmp    0x40210f
  40210d:	33 ff                	xor    %edi,%edi
  40210f:	56                   	push   %esi
  402110:	e8 6d 28 00 00       	call   0x404982
  402115:	8b c6                	mov    %esi,%eax
  402117:	83 e6 1f             	and    $0x1f,%esi
  40211a:	c1 f8 05             	sar    $0x5,%eax
  40211d:	59                   	pop    %ecx
  40211e:	8b 04 85 20 93 40 00 	mov    0x409320(,%eax,4),%eax
  402125:	8d 0c f6             	lea    (%esi,%esi,8),%ecx
  402128:	80 64 88 04 00       	andb   $0x0,0x4(%eax,%ecx,4)
  40212d:	85 ff                	test   %edi,%edi
  40212f:	74 0c                	je     0x40213d
  402131:	57                   	push   %edi
  402132:	e8 27 26 00 00       	call   0x40475e
  402137:	59                   	pop    %ecx
  402138:	83 c8 ff             	or     $0xffffffff,%eax
  40213b:	eb 02                	jmp    0x40213f
  40213d:	33 c0                	xor    %eax,%eax
  40213f:	5f                   	pop    %edi
  402140:	5e                   	pop    %esi
  402141:	c3                   	ret    
  402142:	56                   	push   %esi
  402143:	8b 74 24 08          	mov    0x8(%esp),%esi
  402147:	8b 46 0c             	mov    0xc(%esi),%eax
  40214a:	a8 83                	test   $0x83,%al
  40214c:	74 1d                	je     0x40216b
  40214e:	a8 08                	test   $0x8,%al
  402150:	74 19                	je     0x40216b
  402152:	ff 76 08             	pushl  0x8(%esi)
  402155:	e8 c0 fe ff ff       	call   0x40201a
  40215a:	66 81 66 0c f7 fb    	andw   $0xfbf7,0xc(%esi)
  402160:	33 c0                	xor    %eax,%eax
  402162:	59                   	pop    %ecx
  402163:	89 06                	mov    %eax,(%esi)
  402165:	89 46 08             	mov    %eax,0x8(%esi)
  402168:	89 46 04             	mov    %eax,0x4(%esi)
  40216b:	5e                   	pop    %esi
  40216c:	c3                   	ret    
  40216d:	56                   	push   %esi
  40216e:	8b 74 24 08          	mov    0x8(%esp),%esi
  402172:	56                   	push   %esi
  402173:	e8 23 00 00 00       	call   0x40219b
  402178:	85 c0                	test   %eax,%eax
  40217a:	59                   	pop    %ecx
  40217b:	74 05                	je     0x402182
  40217d:	83 c8 ff             	or     $0xffffffff,%eax
  402180:	5e                   	pop    %esi
  402181:	c3                   	ret    
  402182:	f6 46 0d 40          	testb  $0x40,0xd(%esi)
  402186:	74 0f                	je     0x402197
  402188:	ff 76 10             	pushl  0x10(%esi)
  40218b:	e8 34 29 00 00       	call   0x404ac4
  402190:	f7 d8                	neg    %eax
  402192:	59                   	pop    %ecx
  402193:	5e                   	pop    %esi
  402194:	1b c0                	sbb    %eax,%eax
  402196:	c3                   	ret    
  402197:	33 c0                	xor    %eax,%eax
  402199:	5e                   	pop    %esi
  40219a:	c3                   	ret    
  40219b:	53                   	push   %ebx
  40219c:	56                   	push   %esi
  40219d:	8b 74 24 0c          	mov    0xc(%esp),%esi
  4021a1:	33 db                	xor    %ebx,%ebx
  4021a3:	57                   	push   %edi
  4021a4:	8b 46 0c             	mov    0xc(%esi),%eax
  4021a7:	8b c8                	mov    %eax,%ecx
  4021a9:	83 e1 03             	and    $0x3,%ecx
  4021ac:	80 f9 02             	cmp    $0x2,%cl
  4021af:	75 37                	jne    0x4021e8
  4021b1:	66 a9 08 01          	test   $0x108,%ax
  4021b5:	74 31                	je     0x4021e8
  4021b7:	8b 46 08             	mov    0x8(%esi),%eax
  4021ba:	8b 3e                	mov    (%esi),%edi
  4021bc:	2b f8                	sub    %eax,%edi
  4021be:	85 ff                	test   %edi,%edi
  4021c0:	7e 26                	jle    0x4021e8
  4021c2:	57                   	push   %edi
  4021c3:	50                   	push   %eax
  4021c4:	ff 76 10             	pushl  0x10(%esi)
  4021c7:	e8 8b 29 00 00       	call   0x404b57
  4021cc:	83 c4 0c             	add    $0xc,%esp
  4021cf:	3b c7                	cmp    %edi,%eax
  4021d1:	75 0e                	jne    0x4021e1
  4021d3:	8b 46 0c             	mov    0xc(%esi),%eax
  4021d6:	a8 80                	test   $0x80,%al
  4021d8:	74 0e                	je     0x4021e8
  4021da:	24 fd                	and    $0xfd,%al
  4021dc:	89 46 0c             	mov    %eax,0xc(%esi)
  4021df:	eb 07                	jmp    0x4021e8
  4021e1:	83 4e 0c 20          	orl    $0x20,0xc(%esi)
  4021e5:	83 cb ff             	or     $0xffffffff,%ebx
  4021e8:	8b 46 08             	mov    0x8(%esi),%eax
  4021eb:	83 66 04 00          	andl   $0x0,0x4(%esi)
  4021ef:	89 06                	mov    %eax,(%esi)
  4021f1:	5f                   	pop    %edi
  4021f2:	8b c3                	mov    %ebx,%eax
  4021f4:	5e                   	pop    %esi
  4021f5:	5b                   	pop    %ebx
  4021f6:	c3                   	ret    
  4021f7:	6a 01                	push   $0x1
  4021f9:	e8 02 00 00 00       	call   0x402200
  4021fe:	59                   	pop    %ecx
  4021ff:	c3                   	ret    
  402200:	53                   	push   %ebx
  402201:	56                   	push   %esi
  402202:	57                   	push   %edi
  402203:	6a 02                	push   $0x2
  402205:	33 db                	xor    %ebx,%ebx
  402207:	33 ff                	xor    %edi,%edi
  402209:	e8 29 1a 00 00       	call   0x403c37
  40220e:	33 f6                	xor    %esi,%esi
  402210:	59                   	pop    %ecx
  402211:	39 35 40 a4 40 00    	cmp    %esi,0x40a440
  402217:	7e 74                	jle    0x40228d
  402219:	a1 38 94 40 00       	mov    0x409438,%eax
  40221e:	8b 04 b0             	mov    (%eax,%esi,4),%eax
  402221:	85 c0                	test   %eax,%eax
  402223:	74 5f                	je     0x402284
  402225:	f6 40 0c 83          	testb  $0x83,0xc(%eax)
  402229:	74 59                	je     0x402284
  40222b:	50                   	push   %eax
  40222c:	56                   	push   %esi
  40222d:	e8 b2 f4 ff ff       	call   0x4016e4
  402232:	a1 38 94 40 00       	mov    0x409438,%eax
  402237:	59                   	pop    %ecx
  402238:	59                   	pop    %ecx
  402239:	8b 04 b0             	mov    (%eax,%esi,4),%eax
  40223c:	8b 48 0c             	mov    0xc(%eax),%ecx
  40223f:	f6 c1 83             	test   $0x83,%cl
  402242:	74 30                	je     0x402274
  402244:	83 7c 24 10 01       	cmpl   $0x1,0x10(%esp)
  402249:	75 0f                	jne    0x40225a
  40224b:	50                   	push   %eax
  40224c:	e8 1c ff ff ff       	call   0x40216d
  402251:	83 f8 ff             	cmp    $0xffffffff,%eax
  402254:	59                   	pop    %ecx
  402255:	74 1d                	je     0x402274
  402257:	43                   	inc    %ebx
  402258:	eb 1a                	jmp    0x402274
  40225a:	83 7c 24 10 00       	cmpl   $0x0,0x10(%esp)
  40225f:	75 13                	jne    0x402274
  402261:	f6 c1 02             	test   $0x2,%cl
  402264:	74 0e                	je     0x402274
  402266:	50                   	push   %eax
  402267:	e8 01 ff ff ff       	call   0x40216d
  40226c:	83 f8 ff             	cmp    $0xffffffff,%eax
  40226f:	59                   	pop    %ecx
  402270:	75 02                	jne    0x402274
  402272:	0b f8                	or     %eax,%edi
  402274:	a1 38 94 40 00       	mov    0x409438,%eax
  402279:	ff 34 b0             	pushl  (%eax,%esi,4)
  40227c:	56                   	push   %esi
  40227d:	e8 b4 f4 ff ff       	call   0x401736
  402282:	59                   	pop    %ecx
  402283:	59                   	pop    %ecx
  402284:	46                   	inc    %esi
  402285:	3b 35 40 a4 40 00    	cmp    0x40a440,%esi
  40228b:	7c 8c                	jl     0x402219
  40228d:	6a 02                	push   $0x2
  40228f:	e8 04 1a 00 00       	call   0x403c98
  402294:	83 7c 24 14 01       	cmpl   $0x1,0x14(%esp)
  402299:	59                   	pop    %ecx
  40229a:	8b c3                	mov    %ebx,%eax
  40229c:	74 02                	je     0x4022a0
  40229e:	8b c7                	mov    %edi,%eax
  4022a0:	5f                   	pop    %edi
  4022a1:	5e                   	pop    %esi
  4022a2:	5b                   	pop    %ebx
  4022a3:	c3                   	ret    
  4022a4:	56                   	push   %esi
  4022a5:	8b 74 24 08          	mov    0x8(%esp),%esi
  4022a9:	8b 46 0c             	mov    0xc(%esi),%eax
  4022ac:	a8 83                	test   $0x83,%al
  4022ae:	0f 84 c7 00 00 00    	je     0x40237b
  4022b4:	a8 40                	test   $0x40,%al
  4022b6:	0f 85 bf 00 00 00    	jne    0x40237b
  4022bc:	a8 02                	test   $0x2,%al
  4022be:	74 0a                	je     0x4022ca
  4022c0:	0c 20                	or     $0x20,%al
  4022c2:	89 46 0c             	mov    %eax,0xc(%esi)
  4022c5:	e9 b1 00 00 00       	jmp    0x40237b
  4022ca:	0c 01                	or     $0x1,%al
  4022cc:	66 a9 0c 01          	test   $0x10c,%ax
  4022d0:	89 46 0c             	mov    %eax,0xc(%esi)
  4022d3:	75 09                	jne    0x4022de
  4022d5:	56                   	push   %esi
  4022d6:	e8 6c 2a 00 00       	call   0x404d47
  4022db:	59                   	pop    %ecx
  4022dc:	eb 05                	jmp    0x4022e3
  4022de:	8b 46 08             	mov    0x8(%esi),%eax
  4022e1:	89 06                	mov    %eax,(%esi)
  4022e3:	ff 76 18             	pushl  0x18(%esi)
  4022e6:	ff 76 08             	pushl  0x8(%esi)
  4022e9:	ff 76 10             	pushl  0x10(%esi)
  4022ec:	e8 8f 00 00 00       	call   0x402380
  4022f1:	83 c4 0c             	add    $0xc,%esp
  4022f4:	89 46 04             	mov    %eax,0x4(%esi)
  4022f7:	85 c0                	test   %eax,%eax
  4022f9:	74 6f                	je     0x40236a
  4022fb:	83 f8 ff             	cmp    $0xffffffff,%eax
  4022fe:	74 6a                	je     0x40236a
  402300:	8b 56 0c             	mov    0xc(%esi),%edx
  402303:	f6 c2 82             	test   $0x82,%dl
  402306:	75 37                	jne    0x40233f
  402308:	8b 4e 10             	mov    0x10(%esi),%ecx
  40230b:	57                   	push   %edi
  40230c:	83 f9 ff             	cmp    $0xffffffff,%ecx
  40230f:	74 17                	je     0x402328
  402311:	8b f9                	mov    %ecx,%edi
  402313:	c1 ff 05             	sar    $0x5,%edi
  402316:	83 e1 1f             	and    $0x1f,%ecx
  402319:	8b 3c bd 20 93 40 00 	mov    0x409320(,%edi,4),%edi
  402320:	8d 0c c9             	lea    (%ecx,%ecx,8),%ecx
  402323:	8d 3c 8f             	lea    (%edi,%ecx,4),%edi
  402326:	eb 05                	jmp    0x40232d
  402328:	bf e8 83 40 00       	mov    $0x4083e8,%edi
  40232d:	8a 4f 04             	mov    0x4(%edi),%cl
  402330:	5f                   	pop    %edi
  402331:	80 e1 82             	and    $0x82,%cl
  402334:	80 f9 82             	cmp    $0x82,%cl
  402337:	75 06                	jne    0x40233f
  402339:	80 ce 20             	or     $0x20,%dh
  40233c:	89 56 0c             	mov    %edx,0xc(%esi)
  40233f:	81 7e 18 00 02 00 00 	cmpl   $0x200,0x18(%esi)
  402346:	75 14                	jne    0x40235c
  402348:	8b 4e 0c             	mov    0xc(%esi),%ecx
  40234b:	f6 c1 08             	test   $0x8,%cl
  40234e:	74 0c                	je     0x40235c
  402350:	f6 c5 04             	test   $0x4,%ch
  402353:	75 07                	jne    0x40235c
  402355:	c7 46 18 00 10 00 00 	movl   $0x1000,0x18(%esi)
  40235c:	8b 0e                	mov    (%esi),%ecx
  40235e:	48                   	dec    %eax
  40235f:	89 46 04             	mov    %eax,0x4(%esi)
  402362:	0f b6 01             	movzbl (%ecx),%eax
  402365:	41                   	inc    %ecx
  402366:	89 0e                	mov    %ecx,(%esi)
  402368:	5e                   	pop    %esi
  402369:	c3                   	ret    
  40236a:	f7 d8                	neg    %eax
  40236c:	1b c0                	sbb    %eax,%eax
  40236e:	83 e0 10             	and    $0x10,%eax
  402371:	83 c0 10             	add    $0x10,%eax
  402374:	09 46 0c             	or     %eax,0xc(%esi)
  402377:	83 66 04 00          	andl   $0x0,0x4(%esi)
  40237b:	83 c8 ff             	or     $0xffffffff,%eax
  40237e:	5e                   	pop    %esi
  40237f:	c3                   	ret    
  402380:	56                   	push   %esi
  402381:	8b 74 24 08          	mov    0x8(%esp),%esi
  402385:	3b 35 20 94 40 00    	cmp    0x409420,%esi
  40238b:	73 40                	jae    0x4023cd
  40238d:	8b ce                	mov    %esi,%ecx
  40238f:	8b c6                	mov    %esi,%eax
  402391:	c1 f9 05             	sar    $0x5,%ecx
  402394:	83 e0 1f             	and    $0x1f,%eax
  402397:	8b 0c 8d 20 93 40 00 	mov    0x409320(,%ecx,4),%ecx
  40239e:	8d 04 c0             	lea    (%eax,%eax,8),%eax
  4023a1:	f6 44 81 04 01       	testb  $0x1,0x4(%ecx,%eax,4)
  4023a6:	74 25                	je     0x4023cd
  4023a8:	57                   	push   %edi
  4023a9:	56                   	push   %esi
  4023aa:	e8 94 26 00 00       	call   0x404a43
  4023af:	ff 74 24 18          	pushl  0x18(%esp)
  4023b3:	ff 74 24 18          	pushl  0x18(%esp)
  4023b7:	56                   	push   %esi
  4023b8:	e8 28 00 00 00       	call   0x4023e5
  4023bd:	56                   	push   %esi
  4023be:	8b f8                	mov    %eax,%edi
  4023c0:	e8 dd 26 00 00       	call   0x404aa2
  4023c5:	83 c4 14             	add    $0x14,%esp
  4023c8:	8b c7                	mov    %edi,%eax
  4023ca:	5f                   	pop    %edi
  4023cb:	5e                   	pop    %esi
  4023cc:	c3                   	ret    
  4023cd:	e8 ff 23 00 00       	call   0x4047d1
  4023d2:	c7 00 09 00 00 00    	movl   $0x9,(%eax)
  4023d8:	e8 fd 23 00 00       	call   0x4047da
  4023dd:	83 20 00             	andl   $0x0,(%eax)
  4023e0:	83 c8 ff             	or     $0xffffffff,%eax
  4023e3:	5e                   	pop    %esi
  4023e4:	c3                   	ret    
  4023e5:	55                   	push   %ebp
  4023e6:	8b ec                	mov    %esp,%ebp
  4023e8:	83 ec 0c             	sub    $0xc,%esp
  4023eb:	83 65 f8 00          	andl   $0x0,-0x8(%ebp)
  4023ef:	83 7d 10 00          	cmpl   $0x0,0x10(%ebp)
  4023f3:	53                   	push   %ebx
  4023f4:	8b 5d 0c             	mov    0xc(%ebp),%ebx
  4023f7:	56                   	push   %esi
  4023f8:	57                   	push   %edi
  4023f9:	8b d3                	mov    %ebx,%edx
  4023fb:	0f 84 b6 01 00 00    	je     0x4025b7
  402401:	8b 45 08             	mov    0x8(%ebp),%eax
  402404:	8b c8                	mov    %eax,%ecx
  402406:	83 e0 1f             	and    $0x1f,%eax
  402409:	c1 f9 05             	sar    $0x5,%ecx
  40240c:	8d 34 c0             	lea    (%eax,%eax,8),%esi
  40240f:	8b 04 8d 20 93 40 00 	mov    0x409320(,%ecx,4),%eax
  402416:	8d 3c 8d 20 93 40 00 	lea    0x409320(,%ecx,4),%edi
  40241d:	c1 e6 02             	shl    $0x2,%esi
  402420:	03 c6                	add    %esi,%eax
  402422:	8a 48 04             	mov    0x4(%eax),%cl
  402425:	f6 c1 02             	test   $0x2,%cl
  402428:	0f 85 89 01 00 00    	jne    0x4025b7
  40242e:	f6 c1 48             	test   $0x48,%cl
  402431:	74 1d                	je     0x402450
  402433:	8a 40 05             	mov    0x5(%eax),%al
  402436:	3c 0a                	cmp    $0xa,%al
  402438:	74 16                	je     0x402450
  40243a:	ff 4d 10             	decl   0x10(%ebp)
  40243d:	88 03                	mov    %al,(%ebx)
  40243f:	8b 07                	mov    (%edi),%eax
  402441:	8d 53 01             	lea    0x1(%ebx),%edx
  402444:	c7 45 f8 01 00 00 00 	movl   $0x1,-0x8(%ebp)
  40244b:	c6 44 30 05 0a       	movb   $0xa,0x5(%eax,%esi,1)
  402450:	8d 45 f4             	lea    -0xc(%ebp),%eax
  402453:	6a 00                	push   $0x0
  402455:	50                   	push   %eax
  402456:	8b 07                	mov    (%edi),%eax
  402458:	ff 75 10             	pushl  0x10(%ebp)
  40245b:	52                   	push   %edx
  40245c:	ff 34 30             	pushl  (%eax,%esi,1)
  40245f:	ff 15 20 70 40 00    	call   *0x407020
  402465:	85 c0                	test   %eax,%eax
  402467:	75 39                	jne    0x4024a2
  402469:	ff 15 18 70 40 00    	call   *0x407018
  40246f:	6a 05                	push   $0x5
  402471:	5e                   	pop    %esi
  402472:	3b c6                	cmp    %esi,%eax
  402474:	75 14                	jne    0x40248a
  402476:	e8 56 23 00 00       	call   0x4047d1
  40247b:	c7 00 09 00 00 00    	movl   $0x9,(%eax)
  402481:	e8 54 23 00 00       	call   0x4047da
  402486:	89 30                	mov    %esi,(%eax)
  402488:	eb 10                	jmp    0x40249a
  40248a:	83 f8 6d             	cmp    $0x6d,%eax
  40248d:	0f 84 24 01 00 00    	je     0x4025b7
  402493:	50                   	push   %eax
  402494:	e8 c5 22 00 00       	call   0x40475e
  402499:	59                   	pop    %ecx
  40249a:	83 c8 ff             	or     $0xffffffff,%eax
  40249d:	e9 17 01 00 00       	jmp    0x4025b9
  4024a2:	8b 07                	mov    (%edi),%eax
  4024a4:	8b 55 f4             	mov    -0xc(%ebp),%edx
  4024a7:	01 55 f8             	add    %edx,-0x8(%ebp)
  4024aa:	8d 4c 30 04          	lea    0x4(%eax,%esi,1),%ecx
  4024ae:	8a 44 30 04          	mov    0x4(%eax,%esi,1),%al
  4024b2:	a8 80                	test   $0x80,%al
  4024b4:	0f 84 f8 00 00 00    	je     0x4025b2
  4024ba:	85 d2                	test   %edx,%edx
  4024bc:	74 09                	je     0x4024c7
  4024be:	80 3b 0a             	cmpb   $0xa,(%ebx)
  4024c1:	75 04                	jne    0x4024c7
  4024c3:	0c 04                	or     $0x4,%al
  4024c5:	eb 02                	jmp    0x4024c9
  4024c7:	24 fb                	and    $0xfb,%al
  4024c9:	88 01                	mov    %al,(%ecx)
  4024cb:	8b 45 0c             	mov    0xc(%ebp),%eax
  4024ce:	8b 4d f8             	mov    -0x8(%ebp),%ecx
  4024d1:	89 45 10             	mov    %eax,0x10(%ebp)
  4024d4:	03 c8                	add    %eax,%ecx
  4024d6:	3b c1                	cmp    %ecx,%eax
  4024d8:	89 4d f8             	mov    %ecx,-0x8(%ebp)
  4024db:	0f 83 cb 00 00 00    	jae    0x4025ac
  4024e1:	8b 45 10             	mov    0x10(%ebp),%eax
  4024e4:	8a 00                	mov    (%eax),%al
  4024e6:	3c 1a                	cmp    $0x1a,%al
  4024e8:	0f 84 ae 00 00 00    	je     0x40259c
  4024ee:	3c 0d                	cmp    $0xd,%al
  4024f0:	74 0b                	je     0x4024fd
  4024f2:	88 03                	mov    %al,(%ebx)
  4024f4:	43                   	inc    %ebx
  4024f5:	ff 45 10             	incl   0x10(%ebp)
  4024f8:	e9 91 00 00 00       	jmp    0x40258e
  4024fd:	49                   	dec    %ecx
  4024fe:	39 4d 10             	cmp    %ecx,0x10(%ebp)
  402501:	73 18                	jae    0x40251b
  402503:	8b 45 10             	mov    0x10(%ebp),%eax
  402506:	40                   	inc    %eax
  402507:	80 38 0a             	cmpb   $0xa,(%eax)
  40250a:	75 06                	jne    0x402512
  40250c:	83 45 10 02          	addl   $0x2,0x10(%ebp)
  402510:	eb 5e                	jmp    0x402570
  402512:	c6 03 0d             	movb   $0xd,(%ebx)
  402515:	43                   	inc    %ebx
  402516:	89 45 10             	mov    %eax,0x10(%ebp)
  402519:	eb 73                	jmp    0x40258e
  40251b:	8d 45 f4             	lea    -0xc(%ebp),%eax
  40251e:	6a 00                	push   $0x0
  402520:	50                   	push   %eax
  402521:	ff 45 10             	incl   0x10(%ebp)
  402524:	8d 45 ff             	lea    -0x1(%ebp),%eax
  402527:	6a 01                	push   $0x1
  402529:	50                   	push   %eax
  40252a:	8b 07                	mov    (%edi),%eax
  40252c:	ff 34 30             	pushl  (%eax,%esi,1)
  40252f:	ff 15 20 70 40 00    	call   *0x407020
  402535:	85 c0                	test   %eax,%eax
  402537:	75 0a                	jne    0x402543
  402539:	ff 15 18 70 40 00    	call   *0x407018
  40253f:	85 c0                	test   %eax,%eax
  402541:	75 47                	jne    0x40258a
  402543:	83 7d f4 00          	cmpl   $0x0,-0xc(%ebp)
  402547:	74 41                	je     0x40258a
  402549:	8b 07                	mov    (%edi),%eax
  40254b:	f6 44 30 04 48       	testb  $0x48,0x4(%eax,%esi,1)
  402550:	74 13                	je     0x402565
  402552:	8a 45 ff             	mov    -0x1(%ebp),%al
  402555:	3c 0a                	cmp    $0xa,%al
  402557:	74 17                	je     0x402570
  402559:	c6 03 0d             	movb   $0xd,(%ebx)
  40255c:	8b 0f                	mov    (%edi),%ecx
  40255e:	43                   	inc    %ebx
  40255f:	88 44 31 05          	mov    %al,0x5(%ecx,%esi,1)
  402563:	eb 29                	jmp    0x40258e
  402565:	3b 5d 0c             	cmp    0xc(%ebp),%ebx
  402568:	75 0b                	jne    0x402575
  40256a:	80 7d ff 0a          	cmpb   $0xa,-0x1(%ebp)
  40256e:	75 05                	jne    0x402575
  402570:	c6 03 0a             	movb   $0xa,(%ebx)
  402573:	eb 18                	jmp    0x40258d
  402575:	6a 01                	push   $0x1
  402577:	6a ff                	push   $0xffffffff
  402579:	ff 75 08             	pushl  0x8(%ebp)
  40257c:	e8 6f 28 00 00       	call   0x404df0
  402581:	83 c4 0c             	add    $0xc,%esp
  402584:	80 7d ff 0a          	cmpb   $0xa,-0x1(%ebp)
  402588:	74 04                	je     0x40258e
  40258a:	c6 03 0d             	movb   $0xd,(%ebx)
  40258d:	43                   	inc    %ebx
  40258e:	8b 4d f8             	mov    -0x8(%ebp),%ecx
  402591:	39 4d 10             	cmp    %ecx,0x10(%ebp)
  402594:	0f 82 47 ff ff ff    	jb     0x4024e1
  40259a:	eb 10                	jmp    0x4025ac
  40259c:	8b 07                	mov    (%edi),%eax
  40259e:	8d 74 30 04          	lea    0x4(%eax,%esi,1),%esi
  4025a2:	8a 06                	mov    (%esi),%al
  4025a4:	a8 40                	test   $0x40,%al
  4025a6:	75 04                	jne    0x4025ac
  4025a8:	0c 02                	or     $0x2,%al
  4025aa:	88 06                	mov    %al,(%esi)
  4025ac:	2b 5d 0c             	sub    0xc(%ebp),%ebx
  4025af:	89 5d f8             	mov    %ebx,-0x8(%ebp)
  4025b2:	8b 45 f8             	mov    -0x8(%ebp),%eax
  4025b5:	eb 02                	jmp    0x4025b9
  4025b7:	33 c0                	xor    %eax,%eax
  4025b9:	5f                   	pop    %edi
  4025ba:	5e                   	pop    %esi
  4025bb:	5b                   	pop    %ebx
  4025bc:	c9                   	leave  
  4025bd:	c3                   	ret    
  4025be:	cc                   	int3   
  4025bf:	cc                   	int3   
  4025c0:	55                   	push   %ebp
  4025c1:	8b ec                	mov    %esp,%ebp
  4025c3:	57                   	push   %edi
  4025c4:	56                   	push   %esi
  4025c5:	8b 75 0c             	mov    0xc(%ebp),%esi
  4025c8:	8b 4d 10             	mov    0x10(%ebp),%ecx
  4025cb:	8b 7d 08             	mov    0x8(%ebp),%edi
  4025ce:	8b c1                	mov    %ecx,%eax
  4025d0:	8b d1                	mov    %ecx,%edx
  4025d2:	03 c6                	add    %esi,%eax
  4025d4:	3b fe                	cmp    %esi,%edi
  4025d6:	76 08                	jbe    0x4025e0
  4025d8:	3b f8                	cmp    %eax,%edi
  4025da:	0f 82 78 01 00 00    	jb     0x402758
  4025e0:	f7 c7 03 00 00 00    	test   $0x3,%edi
  4025e6:	75 14                	jne    0x4025fc
  4025e8:	c1 e9 02             	shr    $0x2,%ecx
  4025eb:	83 e2 03             	and    $0x3,%edx
  4025ee:	83 f9 08             	cmp    $0x8,%ecx
  4025f1:	72 29                	jb     0x40261c
  4025f3:	f3 a5                	rep movsl %ds:(%esi),%es:(%edi)
  4025f5:	ff 24 95 08 27 40 00 	jmp    *0x402708(,%edx,4)
  4025fc:	8b c7                	mov    %edi,%eax
  4025fe:	ba 03 00 00 00       	mov    $0x3,%edx
  402603:	83 e9 04             	sub    $0x4,%ecx
  402606:	72 0c                	jb     0x402614
  402608:	83 e0 03             	and    $0x3,%eax
  40260b:	03 c8                	add    %eax,%ecx
  40260d:	ff 24 85 20 26 40 00 	jmp    *0x402620(,%eax,4)
  402614:	ff 24 8d 18 27 40 00 	jmp    *0x402718(,%ecx,4)
  40261b:	90                   	nop
  40261c:	ff 24 8d 9c 26 40 00 	jmp    *0x40269c(,%ecx,4)
  402623:	90                   	nop
  402624:	30 26                	xor    %ah,(%esi)
  402626:	40                   	inc    %eax
  402627:	00 5c 26 40          	add    %bl,0x40(%esi,%eiz,1)
  40262b:	00 80 26 40 00 23    	add    %al,0x23004026(%eax)
  402631:	d1 8a 06 88 07 8a    	rorl   -0x75f877fa(%edx)
  402637:	46                   	inc    %esi
  402638:	01 88 47 01 8a 46    	add    %ecx,0x468a0147(%eax)
  40263e:	02 c1                	add    %cl,%al
  402640:	e9 02 88 47 02       	jmp    0x287ae47
  402645:	83 c6 03             	add    $0x3,%esi
  402648:	83 c7 03             	add    $0x3,%edi
  40264b:	83 f9 08             	cmp    $0x8,%ecx
  40264e:	72 cc                	jb     0x40261c
  402650:	f3 a5                	rep movsl %ds:(%esi),%es:(%edi)
  402652:	ff 24 95 08 27 40 00 	jmp    *0x402708(,%edx,4)
  402659:	8d 49 00             	lea    0x0(%ecx),%ecx
  40265c:	23 d1                	and    %ecx,%edx
  40265e:	8a 06                	mov    (%esi),%al
  402660:	88 07                	mov    %al,(%edi)
  402662:	8a 46 01             	mov    0x1(%esi),%al
  402665:	c1 e9 02             	shr    $0x2,%ecx
  402668:	88 47 01             	mov    %al,0x1(%edi)
  40266b:	83 c6 02             	add    $0x2,%esi
  40266e:	83 c7 02             	add    $0x2,%edi
  402671:	83 f9 08             	cmp    $0x8,%ecx
  402674:	72 a6                	jb     0x40261c
  402676:	f3 a5                	rep movsl %ds:(%esi),%es:(%edi)
  402678:	ff 24 95 08 27 40 00 	jmp    *0x402708(,%edx,4)
  40267f:	90                   	nop
  402680:	23 d1                	and    %ecx,%edx
  402682:	8a 06                	mov    (%esi),%al
  402684:	88 07                	mov    %al,(%edi)
  402686:	46                   	inc    %esi
  402687:	c1 e9 02             	shr    $0x2,%ecx
  40268a:	47                   	inc    %edi
  40268b:	83 f9 08             	cmp    $0x8,%ecx
  40268e:	72 8c                	jb     0x40261c
  402690:	f3 a5                	rep movsl %ds:(%esi),%es:(%edi)
  402692:	ff 24 95 08 27 40 00 	jmp    *0x402708(,%edx,4)
  402699:	8d 49 00             	lea    0x0(%ecx),%ecx
  40269c:	ff 26                	jmp    *(%esi)
  40269e:	40                   	inc    %eax
  40269f:	00 ec                	add    %ch,%ah
  4026a1:	26 40                	es inc %eax
  4026a3:	00 e4                	add    %ah,%ah
  4026a5:	26 40                	es inc %eax
  4026a7:	00 dc                	add    %bl,%ah
  4026a9:	26 40                	es inc %eax
  4026ab:	00 d4                	add    %dl,%ah
  4026ad:	26 40                	es inc %eax
  4026af:	00 cc                	add    %cl,%ah
  4026b1:	26 40                	es inc %eax
  4026b3:	00 c4                	add    %al,%ah
  4026b5:	26 40                	es inc %eax
  4026b7:	00 bc 26 40 00 8b 44 	add    %bh,0x448b0040(%esi,%eiz,1)
  4026be:	8e e4                	mov    %esp,%fs
  4026c0:	89 44 8f e4          	mov    %eax,-0x1c(%edi,%ecx,4)
  4026c4:	8b 44 8e e8          	mov    -0x18(%esi,%ecx,4),%eax
  4026c8:	89 44 8f e8          	mov    %eax,-0x18(%edi,%ecx,4)
  4026cc:	8b 44 8e ec          	mov    -0x14(%esi,%ecx,4),%eax
  4026d0:	89 44 8f ec          	mov    %eax,-0x14(%edi,%ecx,4)
  4026d4:	8b 44 8e f0          	mov    -0x10(%esi,%ecx,4),%eax
  4026d8:	89 44 8f f0          	mov    %eax,-0x10(%edi,%ecx,4)
  4026dc:	8b 44 8e f4          	mov    -0xc(%esi,%ecx,4),%eax
  4026e0:	89 44 8f f4          	mov    %eax,-0xc(%edi,%ecx,4)
  4026e4:	8b 44 8e f8          	mov    -0x8(%esi,%ecx,4),%eax
  4026e8:	89 44 8f f8          	mov    %eax,-0x8(%edi,%ecx,4)
  4026ec:	8b 44 8e fc          	mov    -0x4(%esi,%ecx,4),%eax
  4026f0:	89 44 8f fc          	mov    %eax,-0x4(%edi,%ecx,4)
  4026f4:	8d 04 8d 00 00 00 00 	lea    0x0(,%ecx,4),%eax
  4026fb:	03 f0                	add    %eax,%esi
  4026fd:	03 f8                	add    %eax,%edi
  4026ff:	ff 24 95 08 27 40 00 	jmp    *0x402708(,%edx,4)
  402706:	8b ff                	mov    %edi,%edi
  402708:	18 27                	sbb    %ah,(%edi)
  40270a:	40                   	inc    %eax
  40270b:	00 20                	add    %ah,(%eax)
  40270d:	27                   	daa    
  40270e:	40                   	inc    %eax
  40270f:	00 2c 27             	add    %ch,(%edi,%eiz,1)
  402712:	40                   	inc    %eax
  402713:	00 40 27             	add    %al,0x27(%eax)
  402716:	40                   	inc    %eax
  402717:	00 8b 45 08 5e 5f    	add    %cl,0x5f5e0845(%ebx)
  40271d:	c9                   	leave  
  40271e:	c3                   	ret    
  40271f:	90                   	nop
  402720:	8a 06                	mov    (%esi),%al
  402722:	88 07                	mov    %al,(%edi)
  402724:	8b 45 08             	mov    0x8(%ebp),%eax
  402727:	5e                   	pop    %esi
  402728:	5f                   	pop    %edi
  402729:	c9                   	leave  
  40272a:	c3                   	ret    
  40272b:	90                   	nop
  40272c:	8a 06                	mov    (%esi),%al
  40272e:	88 07                	mov    %al,(%edi)
  402730:	8a 46 01             	mov    0x1(%esi),%al
  402733:	88 47 01             	mov    %al,0x1(%edi)
  402736:	8b 45 08             	mov    0x8(%ebp),%eax
  402739:	5e                   	pop    %esi
  40273a:	5f                   	pop    %edi
  40273b:	c9                   	leave  
  40273c:	c3                   	ret    
  40273d:	8d 49 00             	lea    0x0(%ecx),%ecx
  402740:	8a 06                	mov    (%esi),%al
  402742:	88 07                	mov    %al,(%edi)
  402744:	8a 46 01             	mov    0x1(%esi),%al
  402747:	88 47 01             	mov    %al,0x1(%edi)
  40274a:	8a 46 02             	mov    0x2(%esi),%al
  40274d:	88 47 02             	mov    %al,0x2(%edi)
  402750:	8b 45 08             	mov    0x8(%ebp),%eax
  402753:	5e                   	pop    %esi
  402754:	5f                   	pop    %edi
  402755:	c9                   	leave  
  402756:	c3                   	ret    
  402757:	90                   	nop
  402758:	8d 74 31 fc          	lea    -0x4(%ecx,%esi,1),%esi
  40275c:	8d 7c 39 fc          	lea    -0x4(%ecx,%edi,1),%edi
  402760:	f7 c7 03 00 00 00    	test   $0x3,%edi
  402766:	75 24                	jne    0x40278c
  402768:	c1 e9 02             	shr    $0x2,%ecx
  40276b:	83 e2 03             	and    $0x3,%edx
  40276e:	83 f9 08             	cmp    $0x8,%ecx
  402771:	72 0d                	jb     0x402780
  402773:	fd                   	std    
  402774:	f3 a5                	rep movsl %ds:(%esi),%es:(%edi)
  402776:	fc                   	cld    
  402777:	ff 24 95 a0 28 40 00 	jmp    *0x4028a0(,%edx,4)
  40277e:	8b ff                	mov    %edi,%edi
  402780:	f7 d9                	neg    %ecx
  402782:	ff 24 8d 50 28 40 00 	jmp    *0x402850(,%ecx,4)
  402789:	8d 49 00             	lea    0x0(%ecx),%ecx
  40278c:	8b c7                	mov    %edi,%eax
  40278e:	ba 03 00 00 00       	mov    $0x3,%edx
  402793:	83 f9 04             	cmp    $0x4,%ecx
  402796:	72 0c                	jb     0x4027a4
  402798:	83 e0 03             	and    $0x3,%eax
  40279b:	2b c8                	sub    %eax,%ecx
  40279d:	ff 24 85 a8 27 40 00 	jmp    *0x4027a8(,%eax,4)
  4027a4:	ff 24 8d a0 28 40 00 	jmp    *0x4028a0(,%ecx,4)
  4027ab:	90                   	nop
  4027ac:	b8 27 40 00 d8       	mov    $0xd8004027,%eax
  4027b1:	27                   	daa    
  4027b2:	40                   	inc    %eax
  4027b3:	00 00                	add    %al,(%eax)
  4027b5:	28 40 00             	sub    %al,0x0(%eax)
  4027b8:	8a 46 03             	mov    0x3(%esi),%al
  4027bb:	23 d1                	and    %ecx,%edx
  4027bd:	88 47 03             	mov    %al,0x3(%edi)
  4027c0:	4e                   	dec    %esi
  4027c1:	c1 e9 02             	shr    $0x2,%ecx
  4027c4:	4f                   	dec    %edi
  4027c5:	83 f9 08             	cmp    $0x8,%ecx
  4027c8:	72 b6                	jb     0x402780
  4027ca:	fd                   	std    
  4027cb:	f3 a5                	rep movsl %ds:(%esi),%es:(%edi)
  4027cd:	fc                   	cld    
  4027ce:	ff 24 95 a0 28 40 00 	jmp    *0x4028a0(,%edx,4)
  4027d5:	8d 49 00             	lea    0x0(%ecx),%ecx
  4027d8:	8a 46 03             	mov    0x3(%esi),%al
  4027db:	23 d1                	and    %ecx,%edx
  4027dd:	88 47 03             	mov    %al,0x3(%edi)
  4027e0:	8a 46 02             	mov    0x2(%esi),%al
  4027e3:	c1 e9 02             	shr    $0x2,%ecx
  4027e6:	88 47 02             	mov    %al,0x2(%edi)
  4027e9:	83 ee 02             	sub    $0x2,%esi
  4027ec:	83 ef 02             	sub    $0x2,%edi
  4027ef:	83 f9 08             	cmp    $0x8,%ecx
  4027f2:	72 8c                	jb     0x402780
  4027f4:	fd                   	std    
  4027f5:	f3 a5                	rep movsl %ds:(%esi),%es:(%edi)
  4027f7:	fc                   	cld    
  4027f8:	ff 24 95 a0 28 40 00 	jmp    *0x4028a0(,%edx,4)
  4027ff:	90                   	nop
  402800:	8a 46 03             	mov    0x3(%esi),%al
  402803:	23 d1                	and    %ecx,%edx
  402805:	88 47 03             	mov    %al,0x3(%edi)
  402808:	8a 46 02             	mov    0x2(%esi),%al
  40280b:	88 47 02             	mov    %al,0x2(%edi)
  40280e:	8a 46 01             	mov    0x1(%esi),%al
  402811:	c1 e9 02             	shr    $0x2,%ecx
  402814:	88 47 01             	mov    %al,0x1(%edi)
  402817:	83 ee 03             	sub    $0x3,%esi
  40281a:	83 ef 03             	sub    $0x3,%edi
  40281d:	83 f9 08             	cmp    $0x8,%ecx
  402820:	0f 82 5a ff ff ff    	jb     0x402780
  402826:	fd                   	std    
  402827:	f3 a5                	rep movsl %ds:(%esi),%es:(%edi)
  402829:	fc                   	cld    
  40282a:	ff 24 95 a0 28 40 00 	jmp    *0x4028a0(,%edx,4)
  402831:	8d 49 00             	lea    0x0(%ecx),%ecx
  402834:	54                   	push   %esp
  402835:	28 40 00             	sub    %al,0x0(%eax)
  402838:	5c                   	pop    %esp
  402839:	28 40 00             	sub    %al,0x0(%eax)
  40283c:	64 28 40 00          	sub    %al,%fs:0x0(%eax)
  402840:	6c                   	insb   (%dx),%es:(%edi)
  402841:	28 40 00             	sub    %al,0x0(%eax)
  402844:	74 28                	je     0x40286e
  402846:	40                   	inc    %eax
  402847:	00 7c 28 40          	add    %bh,0x40(%eax,%ebp,1)
  40284b:	00 84 28 40 00 97 28 	add    %al,0x28970040(%eax,%ebp,1)
  402852:	40                   	inc    %eax
  402853:	00 8b 44 8e 1c 89    	add    %cl,-0x76e371bc(%ebx)
  402859:	44                   	inc    %esp
  40285a:	8f                   	(bad)  
  40285b:	1c 8b                	sbb    $0x8b,%al
  40285d:	44                   	inc    %esp
  40285e:	8e 18                	mov    (%eax),%ds
  402860:	89 44 8f 18          	mov    %eax,0x18(%edi,%ecx,4)
  402864:	8b 44 8e 14          	mov    0x14(%esi,%ecx,4),%eax
  402868:	89 44 8f 14          	mov    %eax,0x14(%edi,%ecx,4)
  40286c:	8b 44 8e 10          	mov    0x10(%esi,%ecx,4),%eax
  402870:	89 44 8f 10          	mov    %eax,0x10(%edi,%ecx,4)
  402874:	8b 44 8e 0c          	mov    0xc(%esi,%ecx,4),%eax
  402878:	89 44 8f 0c          	mov    %eax,0xc(%edi,%ecx,4)
  40287c:	8b 44 8e 08          	mov    0x8(%esi,%ecx,4),%eax
  402880:	89 44 8f 08          	mov    %eax,0x8(%edi,%ecx,4)
  402884:	8b 44 8e 04          	mov    0x4(%esi,%ecx,4),%eax
  402888:	89 44 8f 04          	mov    %eax,0x4(%edi,%ecx,4)
  40288c:	8d 04 8d 00 00 00 00 	lea    0x0(,%ecx,4),%eax
  402893:	03 f0                	add    %eax,%esi
  402895:	03 f8                	add    %eax,%edi
  402897:	ff 24 95 a0 28 40 00 	jmp    *0x4028a0(,%edx,4)
  40289e:	8b ff                	mov    %edi,%edi
  4028a0:	b0 28                	mov    $0x28,%al
  4028a2:	40                   	inc    %eax
  4028a3:	00 b8 28 40 00 c8    	add    %bh,-0x37ffbfd8(%eax)
  4028a9:	28 40 00             	sub    %al,0x0(%eax)
  4028ac:	dc 28                	fsubrl (%eax)
  4028ae:	40                   	inc    %eax
  4028af:	00 8b 45 08 5e 5f    	add    %cl,0x5f5e0845(%ebx)
  4028b5:	c9                   	leave  
  4028b6:	c3                   	ret    
  4028b7:	90                   	nop
  4028b8:	8a 46 03             	mov    0x3(%esi),%al
  4028bb:	88 47 03             	mov    %al,0x3(%edi)
  4028be:	8b 45 08             	mov    0x8(%ebp),%eax
  4028c1:	5e                   	pop    %esi
  4028c2:	5f                   	pop    %edi
  4028c3:	c9                   	leave  
  4028c4:	c3                   	ret    
  4028c5:	8d 49 00             	lea    0x0(%ecx),%ecx
  4028c8:	8a 46 03             	mov    0x3(%esi),%al
  4028cb:	88 47 03             	mov    %al,0x3(%edi)
  4028ce:	8a 46 02             	mov    0x2(%esi),%al
  4028d1:	88 47 02             	mov    %al,0x2(%edi)
  4028d4:	8b 45 08             	mov    0x8(%ebp),%eax
  4028d7:	5e                   	pop    %esi
  4028d8:	5f                   	pop    %edi
  4028d9:	c9                   	leave  
  4028da:	c3                   	ret    
  4028db:	90                   	nop
  4028dc:	8a 46 03             	mov    0x3(%esi),%al
  4028df:	88 47 03             	mov    %al,0x3(%edi)
  4028e2:	8a 46 02             	mov    0x2(%esi),%al
  4028e5:	88 47 02             	mov    %al,0x2(%edi)
  4028e8:	8a 46 01             	mov    0x1(%esi),%al
  4028eb:	88 47 01             	mov    %al,0x1(%edi)
  4028ee:	8b 45 08             	mov    0x8(%ebp),%eax
  4028f1:	5e                   	pop    %esi
  4028f2:	5f                   	pop    %edi
  4028f3:	c9                   	leave  
  4028f4:	c3                   	ret    
  4028f5:	55                   	push   %ebp
  4028f6:	8b ec                	mov    %esp,%ebp
  4028f8:	51                   	push   %ecx
  4028f9:	51                   	push   %ecx
  4028fa:	53                   	push   %ebx
  4028fb:	56                   	push   %esi
  4028fc:	8b 35 28 8f 40 00    	mov    0x408f28,%esi
  402902:	57                   	push   %edi
  402903:	8b 7d 0c             	mov    0xc(%ebp),%edi
  402906:	33 db                	xor    %ebx,%ebx
  402908:	89 5d f8             	mov    %ebx,-0x8(%ebp)
  40290b:	89 5d fc             	mov    %ebx,-0x4(%ebp)
  40290e:	8a 07                	mov    (%edi),%al
  402910:	3c 61                	cmp    $0x61,%al
  402912:	74 1a                	je     0x40292e
  402914:	3c 72                	cmp    $0x72,%al
  402916:	74 0f                	je     0x402927
  402918:	3c 77                	cmp    $0x77,%al
  40291a:	0f 85 22 01 00 00    	jne    0x402a42
  402920:	b9 01 03 00 00       	mov    $0x301,%ecx
  402925:	eb 0c                	jmp    0x402933
  402927:	33 c9                	xor    %ecx,%ecx
  402929:	83 ce 01             	or     $0x1,%esi
  40292c:	eb 08                	jmp    0x402936
  40292e:	b9 09 01 00 00       	mov    $0x109,%ecx
  402933:	83 ce 02             	or     $0x2,%esi
  402936:	6a 01                	push   $0x1
  402938:	5a                   	pop    %edx
  402939:	8a 47 01             	mov    0x1(%edi),%al
  40293c:	47                   	inc    %edi
  40293d:	3a c3                	cmp    %bl,%al
  40293f:	0f 84 e3 00 00 00    	je     0x402a28
  402945:	3b d3                	cmp    %ebx,%edx
  402947:	0f 84 db 00 00 00    	je     0x402a28
  40294d:	0f be c0             	movsbl %al,%eax
  402950:	83 f8 54             	cmp    $0x54,%eax
  402953:	7f 72                	jg     0x4029c7
  402955:	74 60                	je     0x4029b7
  402957:	83 e8 2b             	sub    $0x2b,%eax
  40295a:	74 45                	je     0x4029a1
  40295c:	83 e8 19             	sub    $0x19,%eax
  40295f:	74 36                	je     0x402997
  402961:	83 e8 0e             	sub    $0xe,%eax
  402964:	74 1c                	je     0x402982
  402966:	48                   	dec    %eax
  402967:	0f 85 ac 00 00 00    	jne    0x402a19
  40296d:	39 5d fc             	cmp    %ebx,-0x4(%ebp)
  402970:	0f 85 a3 00 00 00    	jne    0x402a19
  402976:	c7 45 fc 01 00 00 00 	movl   $0x1,-0x4(%ebp)
  40297d:	83 c9 20             	or     $0x20,%ecx
  402980:	eb b7                	jmp    0x402939
  402982:	39 5d fc             	cmp    %ebx,-0x4(%ebp)
  402985:	0f 85 8e 00 00 00    	jne    0x402a19
  40298b:	c7 45 fc 01 00 00 00 	movl   $0x1,-0x4(%ebp)
  402992:	83 c9 10             	or     $0x10,%ecx
  402995:	eb a2                	jmp    0x402939
  402997:	f6 c1 40             	test   $0x40,%cl
  40299a:	75 7d                	jne    0x402a19
  40299c:	83 c9 40             	or     $0x40,%ecx
  40299f:	eb 98                	jmp    0x402939
  4029a1:	f6 c1 02             	test   $0x2,%cl
  4029a4:	75 73                	jne    0x402a19
  4029a6:	83 e1 fe             	and    $0xfffffffe,%ecx
  4029a9:	83 e6 fc             	and    $0xfffffffc,%esi
  4029ac:	83 c9 02             	or     $0x2,%ecx
  4029af:	81 ce 80 00 00 00    	or     $0x80,%esi
  4029b5:	eb 82                	jmp    0x402939
  4029b7:	b8 00 10 00 00       	mov    $0x1000,%eax
  4029bc:	85 c8                	test   %ecx,%eax
  4029be:	75 59                	jne    0x402a19
  4029c0:	0b c8                	or     %eax,%ecx
  4029c2:	e9 72 ff ff ff       	jmp    0x402939
  4029c7:	83 e8 62             	sub    $0x62,%eax
  4029ca:	74 48                	je     0x402a14
  4029cc:	48                   	dec    %eax
  4029cd:	74 2e                	je     0x4029fd
  4029cf:	83 e8 0b             	sub    $0xb,%eax
  4029d2:	74 12                	je     0x4029e6
  4029d4:	83 e8 06             	sub    $0x6,%eax
  4029d7:	75 40                	jne    0x402a19
  4029d9:	f6 c5 c0             	test   $0xc0,%ch
  4029dc:	75 3b                	jne    0x402a19
  4029de:	80 cd 40             	or     $0x40,%ch
  4029e1:	e9 53 ff ff ff       	jmp    0x402939
  4029e6:	39 5d f8             	cmp    %ebx,-0x8(%ebp)
  4029e9:	75 2e                	jne    0x402a19
  4029eb:	c7 45 f8 01 00 00 00 	movl   $0x1,-0x8(%ebp)
  4029f2:	81 e6 ff bf ff ff    	and    $0xffffbfff,%esi
  4029f8:	e9 3c ff ff ff       	jmp    0x402939
  4029fd:	39 5d f8             	cmp    %ebx,-0x8(%ebp)
  402a00:	75 17                	jne    0x402a19
  402a02:	c7 45 f8 01 00 00 00 	movl   $0x1,-0x8(%ebp)
  402a09:	81 ce 00 40 00 00    	or     $0x4000,%esi
  402a0f:	e9 25 ff ff ff       	jmp    0x402939
  402a14:	f6 c5 c0             	test   $0xc0,%ch
  402a17:	74 07                	je     0x402a20
  402a19:	33 d2                	xor    %edx,%edx
  402a1b:	e9 19 ff ff ff       	jmp    0x402939
  402a20:	80 cd 80             	or     $0x80,%ch
  402a23:	e9 11 ff ff ff       	jmp    0x402939
  402a28:	68 a4 01 00 00       	push   $0x1a4
  402a2d:	ff 75 10             	pushl  0x10(%ebp)
  402a30:	51                   	push   %ecx
  402a31:	ff 75 08             	pushl  0x8(%ebp)
  402a34:	e8 2a 24 00 00       	call   0x404e63
  402a39:	8b c8                	mov    %eax,%ecx
  402a3b:	83 c4 10             	add    $0x10,%esp
  402a3e:	3b cb                	cmp    %ebx,%ecx
  402a40:	7d 04                	jge    0x402a46
  402a42:	33 c0                	xor    %eax,%eax
  402a44:	eb 1a                	jmp    0x402a60
  402a46:	8b 45 14             	mov    0x14(%ebp),%eax
  402a49:	ff 05 6c 8d 40 00    	incl   0x408d6c
  402a4f:	89 70 0c             	mov    %esi,0xc(%eax)
  402a52:	89 58 04             	mov    %ebx,0x4(%eax)
  402a55:	89 18                	mov    %ebx,(%eax)
  402a57:	89 58 08             	mov    %ebx,0x8(%eax)
  402a5a:	89 58 1c             	mov    %ebx,0x1c(%eax)
  402a5d:	89 48 10             	mov    %ecx,0x10(%eax)
  402a60:	5f                   	pop    %edi
  402a61:	5e                   	pop    %esi
  402a62:	5b                   	pop    %ebx
  402a63:	c9                   	leave  
  402a64:	c3                   	ret    
  402a65:	53                   	push   %ebx
  402a66:	56                   	push   %esi
  402a67:	57                   	push   %edi
  402a68:	6a 02                	push   $0x2
  402a6a:	33 db                	xor    %ebx,%ebx
  402a6c:	33 ff                	xor    %edi,%edi
  402a6e:	e8 c4 11 00 00       	call   0x403c37
  402a73:	33 f6                	xor    %esi,%esi
  402a75:	39 1d 40 a4 40 00    	cmp    %ebx,0x40a440
  402a7b:	59                   	pop    %ecx
  402a7c:	0f 8e 9d 00 00 00    	jle    0x402b1f
  402a82:	a1 38 94 40 00       	mov    0x409438,%eax
  402a87:	8b 04 b0             	mov    (%eax,%esi,4),%eax
  402a8a:	3b c3                	cmp    %ebx,%eax
  402a8c:	74 37                	je     0x402ac5
  402a8e:	f6 40 0c 83          	testb  $0x83,0xc(%eax)
  402a92:	75 21                	jne    0x402ab5
  402a94:	50                   	push   %eax
  402a95:	56                   	push   %esi
  402a96:	e8 49 ec ff ff       	call   0x4016e4
  402a9b:	59                   	pop    %ecx
  402a9c:	59                   	pop    %ecx
  402a9d:	8b 0d 38 94 40 00    	mov    0x409438,%ecx
  402aa3:	8b 04 b1             	mov    (%ecx,%esi,4),%eax
  402aa6:	f6 40 0c 83          	testb  $0x83,0xc(%eax)
  402aaa:	74 14                	je     0x402ac0
  402aac:	50                   	push   %eax
  402aad:	56                   	push   %esi
  402aae:	e8 83 ec ff ff       	call   0x401736
  402ab3:	59                   	pop    %ecx
  402ab4:	59                   	pop    %ecx
  402ab5:	46                   	inc    %esi
  402ab6:	3b 35 40 a4 40 00    	cmp    0x40a440,%esi
  402abc:	7c c4                	jl     0x402a82
  402abe:	eb 5f                	jmp    0x402b1f
  402ac0:	8b 3c b1             	mov    (%ecx,%esi,4),%edi
  402ac3:	eb 44                	jmp    0x402b09
  402ac5:	6a 38                	push   $0x38
  402ac7:	c1 e6 02             	shl    $0x2,%esi
  402aca:	e8 de 11 00 00       	call   0x403cad
  402acf:	59                   	pop    %ecx
  402ad0:	8b 0d 38 94 40 00    	mov    0x409438,%ecx
  402ad6:	89 04 0e             	mov    %eax,(%esi,%ecx,1)
  402ad9:	a1 38 94 40 00       	mov    0x409438,%eax
  402ade:	8b 04 06             	mov    (%esi,%eax,1),%eax
  402ae1:	3b c3                	cmp    %ebx,%eax
  402ae3:	74 3a                	je     0x402b1f
  402ae5:	83 c0 20             	add    $0x20,%eax
  402ae8:	50                   	push   %eax
  402ae9:	ff 15 24 70 40 00    	call   *0x407024
  402aef:	a1 38 94 40 00       	mov    0x409438,%eax
  402af4:	8b 04 06             	mov    (%esi,%eax,1),%eax
  402af7:	83 c0 20             	add    $0x20,%eax
  402afa:	50                   	push   %eax
  402afb:	ff 15 0c 70 40 00    	call   *0x40700c
  402b01:	a1 38 94 40 00       	mov    0x409438,%eax
  402b06:	8b 3c 06             	mov    (%esi,%eax,1),%edi
  402b09:	3b fb                	cmp    %ebx,%edi
  402b0b:	74 12                	je     0x402b1f
  402b0d:	83 4f 10 ff          	orl    $0xffffffff,0x10(%edi)
  402b11:	89 5f 04             	mov    %ebx,0x4(%edi)
  402b14:	89 5f 0c             	mov    %ebx,0xc(%edi)
  402b17:	89 5f 08             	mov    %ebx,0x8(%edi)
  402b1a:	89 1f                	mov    %ebx,(%edi)
  402b1c:	89 5f 1c             	mov    %ebx,0x1c(%edi)
  402b1f:	6a 02                	push   $0x2
  402b21:	e8 72 11 00 00       	call   0x403c98
  402b26:	59                   	pop    %ecx
  402b27:	8b c7                	mov    %edi,%eax
  402b29:	5f                   	pop    %edi
  402b2a:	5e                   	pop    %esi
  402b2b:	5b                   	pop    %ebx
  402b2c:	c3                   	ret    
  402b2d:	56                   	push   %esi
  402b2e:	8b 74 24 08          	mov    0x8(%esp),%esi
  402b32:	57                   	push   %edi
  402b33:	56                   	push   %esi
  402b34:	e8 7c eb ff ff       	call   0x4016b5
  402b39:	ff 4e 04             	decl   0x4(%esi)
  402b3c:	59                   	pop    %ecx
  402b3d:	78 0a                	js     0x402b49
  402b3f:	8b 06                	mov    (%esi),%eax
  402b41:	0f b6 38             	movzbl (%eax),%edi
  402b44:	40                   	inc    %eax
  402b45:	89 06                	mov    %eax,(%esi)
  402b47:	eb 09                	jmp    0x402b52
  402b49:	56                   	push   %esi
  402b4a:	e8 55 f7 ff ff       	call   0x4022a4
  402b4f:	59                   	pop    %ecx
  402b50:	8b f8                	mov    %eax,%edi
  402b52:	56                   	push   %esi
  402b53:	e8 af eb ff ff       	call   0x401707
  402b58:	59                   	pop    %ecx
  402b59:	8b c7                	mov    %edi,%eax
  402b5b:	5f                   	pop    %edi
  402b5c:	5e                   	pop    %esi
  402b5d:	c3                   	ret    
  402b5e:	ff 74 24 04          	pushl  0x4(%esp)
  402b62:	e8 c6 ff ff ff       	call   0x402b2d
  402b67:	59                   	pop    %ecx
  402b68:	c3                   	ret    
  402b69:	55                   	push   %ebp
  402b6a:	8b ec                	mov    %esp,%ebp
  402b6c:	53                   	push   %ebx
  402b6d:	56                   	push   %esi
  402b6e:	8b 75 0c             	mov    0xc(%ebp),%esi
  402b71:	8b 46 0c             	mov    0xc(%esi),%eax
  402b74:	8b 5e 10             	mov    0x10(%esi),%ebx
  402b77:	a8 82                	test   $0x82,%al
  402b79:	0f 84 f6 00 00 00    	je     0x402c75
  402b7f:	a8 40                	test   $0x40,%al
  402b81:	0f 85 ee 00 00 00    	jne    0x402c75
  402b87:	a8 01                	test   $0x1,%al
  402b89:	74 16                	je     0x402ba1
  402b8b:	83 66 04 00          	andl   $0x0,0x4(%esi)
  402b8f:	a8 10                	test   $0x10,%al
  402b91:	0f 84 de 00 00 00    	je     0x402c75
  402b97:	8b 4e 08             	mov    0x8(%esi),%ecx
  402b9a:	24 fe                	and    $0xfe,%al
  402b9c:	89 0e                	mov    %ecx,(%esi)
  402b9e:	89 46 0c             	mov    %eax,0xc(%esi)
  402ba1:	8b 46 0c             	mov    0xc(%esi),%eax
  402ba4:	83 66 04 00          	andl   $0x0,0x4(%esi)
  402ba8:	83 65 0c 00          	andl   $0x0,0xc(%ebp)
  402bac:	24 ef                	and    $0xef,%al
  402bae:	0c 02                	or     $0x2,%al
  402bb0:	66 a9 0c 01          	test   $0x10c,%ax
  402bb4:	89 46 0c             	mov    %eax,0xc(%esi)
  402bb7:	75 22                	jne    0x402bdb
  402bb9:	81 fe f8 80 40 00    	cmp    $0x4080f8,%esi
  402bbf:	74 08                	je     0x402bc9
  402bc1:	81 fe 18 81 40 00    	cmp    $0x408118,%esi
  402bc7:	75 0b                	jne    0x402bd4
  402bc9:	53                   	push   %ebx
  402bca:	e8 6a 11 00 00       	call   0x403d39
  402bcf:	85 c0                	test   %eax,%eax
  402bd1:	59                   	pop    %ecx
  402bd2:	75 07                	jne    0x402bdb
  402bd4:	56                   	push   %esi
  402bd5:	e8 6d 21 00 00       	call   0x404d47
  402bda:	59                   	pop    %ecx
  402bdb:	66 f7 46 0c 08 01    	testw  $0x108,0xc(%esi)
  402be1:	57                   	push   %edi
  402be2:	74 67                	je     0x402c4b
  402be4:	8b 46 08             	mov    0x8(%esi),%eax
  402be7:	8b 3e                	mov    (%esi),%edi
  402be9:	2b f8                	sub    %eax,%edi
  402beb:	8d 48 01             	lea    0x1(%eax),%ecx
  402bee:	89 0e                	mov    %ecx,(%esi)
  402bf0:	8b 4e 18             	mov    0x18(%esi),%ecx
  402bf3:	49                   	dec    %ecx
  402bf4:	85 ff                	test   %edi,%edi
  402bf6:	89 4e 04             	mov    %ecx,0x4(%esi)
  402bf9:	7e 10                	jle    0x402c0b
  402bfb:	57                   	push   %edi
  402bfc:	50                   	push   %eax
  402bfd:	53                   	push   %ebx
  402bfe:	e8 54 1f 00 00       	call   0x404b57
  402c03:	83 c4 0c             	add    $0xc,%esp
  402c06:	89 45 0c             	mov    %eax,0xc(%ebp)
  402c09:	eb 36                	jmp    0x402c41
  402c0b:	83 fb ff             	cmp    $0xffffffff,%ebx
  402c0e:	74 19                	je     0x402c29
  402c10:	8b cb                	mov    %ebx,%ecx
  402c12:	8b c3                	mov    %ebx,%eax
  402c14:	c1 f9 05             	sar    $0x5,%ecx
  402c17:	83 e0 1f             	and    $0x1f,%eax
  402c1a:	8b 0c 8d 20 93 40 00 	mov    0x409320(,%ecx,4),%ecx
  402c21:	8d 04 c0             	lea    (%eax,%eax,8),%eax
  402c24:	8d 04 81             	lea    (%ecx,%eax,4),%eax
  402c27:	eb 05                	jmp    0x402c2e
  402c29:	b8 e8 83 40 00       	mov    $0x4083e8,%eax
  402c2e:	f6 40 04 20          	testb  $0x20,0x4(%eax)
  402c32:	74 0d                	je     0x402c41
  402c34:	6a 02                	push   $0x2
  402c36:	6a 00                	push   $0x0
  402c38:	53                   	push   %ebx
  402c39:	e8 4d 21 00 00       	call   0x404d8b
  402c3e:	83 c4 0c             	add    $0xc,%esp
  402c41:	8b 46 08             	mov    0x8(%esi),%eax
  402c44:	8a 4d 08             	mov    0x8(%ebp),%cl
  402c47:	88 08                	mov    %cl,(%eax)
  402c49:	eb 14                	jmp    0x402c5f
  402c4b:	6a 01                	push   $0x1
  402c4d:	8d 45 08             	lea    0x8(%ebp),%eax
  402c50:	5f                   	pop    %edi
  402c51:	57                   	push   %edi
  402c52:	50                   	push   %eax
  402c53:	53                   	push   %ebx
  402c54:	e8 fe 1e 00 00       	call   0x404b57
  402c59:	83 c4 0c             	add    $0xc,%esp
  402c5c:	89 45 0c             	mov    %eax,0xc(%ebp)
  402c5f:	39 7d 0c             	cmp    %edi,0xc(%ebp)
  402c62:	5f                   	pop    %edi
  402c63:	74 06                	je     0x402c6b
  402c65:	83 4e 0c 20          	orl    $0x20,0xc(%esi)
  402c69:	eb 0f                	jmp    0x402c7a
  402c6b:	8b 45 08             	mov    0x8(%ebp),%eax
  402c6e:	25 ff 00 00 00       	and    $0xff,%eax
  402c73:	eb 08                	jmp    0x402c7d
  402c75:	0c 20                	or     $0x20,%al
  402c77:	89 46 0c             	mov    %eax,0xc(%esi)
  402c7a:	83 c8 ff             	or     $0xffffffff,%eax
  402c7d:	5e                   	pop    %esi
  402c7e:	5b                   	pop    %ebx
  402c7f:	5d                   	pop    %ebp
  402c80:	c3                   	ret    
  402c81:	55                   	push   %ebp
  402c82:	8b ec                	mov    %esp,%ebp
  402c84:	51                   	push   %ecx
  402c85:	53                   	push   %ebx
  402c86:	56                   	push   %esi
  402c87:	57                   	push   %edi
  402c88:	8b 7d 0c             	mov    0xc(%ebp),%edi
  402c8b:	0f af 7d 10          	imul   0x10(%ebp),%edi
  402c8f:	8b 45 08             	mov    0x8(%ebp),%eax
  402c92:	89 7d fc             	mov    %edi,-0x4(%ebp)
  402c95:	85 ff                	test   %edi,%edi
  402c97:	89 45 08             	mov    %eax,0x8(%ebp)
  402c9a:	8b df                	mov    %edi,%ebx
  402c9c:	75 07                	jne    0x402ca5
  402c9e:	33 c0                	xor    %eax,%eax
  402ca0:	e9 cd 00 00 00       	jmp    0x402d72
  402ca5:	8b 75 14             	mov    0x14(%ebp),%esi
  402ca8:	66 f7 46 0c 0c 01    	testw  $0x10c,0xc(%esi)
  402cae:	74 08                	je     0x402cb8
  402cb0:	8b 46 18             	mov    0x18(%esi),%eax
  402cb3:	89 45 14             	mov    %eax,0x14(%ebp)
  402cb6:	eb 07                	jmp    0x402cbf
  402cb8:	c7 45 14 00 10 00 00 	movl   $0x1000,0x14(%ebp)
  402cbf:	8b 4e 0c             	mov    0xc(%esi),%ecx
  402cc2:	81 e1 08 01 00 00    	and    $0x108,%ecx
  402cc8:	74 29                	je     0x402cf3
  402cca:	8b 46 04             	mov    0x4(%esi),%eax
  402ccd:	85 c0                	test   %eax,%eax
  402ccf:	74 22                	je     0x402cf3
  402cd1:	3b d8                	cmp    %eax,%ebx
  402cd3:	8b fb                	mov    %ebx,%edi
  402cd5:	72 02                	jb     0x402cd9
  402cd7:	8b f8                	mov    %eax,%edi
  402cd9:	57                   	push   %edi
  402cda:	ff 75 08             	pushl  0x8(%ebp)
  402cdd:	ff 36                	pushl  (%esi)
  402cdf:	e8 dc f8 ff ff       	call   0x4025c0
  402ce4:	29 7e 04             	sub    %edi,0x4(%esi)
  402ce7:	01 3e                	add    %edi,(%esi)
  402ce9:	83 c4 0c             	add    $0xc,%esp
  402cec:	2b df                	sub    %edi,%ebx
  402cee:	01 7d 08             	add    %edi,0x8(%ebp)
  402cf1:	eb 46                	jmp    0x402d39
  402cf3:	3b 5d 14             	cmp    0x14(%ebp),%ebx
  402cf6:	72 46                	jb     0x402d3e
  402cf8:	85 c9                	test   %ecx,%ecx
  402cfa:	74 0b                	je     0x402d07
  402cfc:	56                   	push   %esi
  402cfd:	e8 99 f4 ff ff       	call   0x40219b
  402d02:	85 c0                	test   %eax,%eax
  402d04:	59                   	pop    %ecx
  402d05:	75 79                	jne    0x402d80
  402d07:	83 7d 14 00          	cmpl   $0x0,0x14(%ebp)
  402d0b:	74 0d                	je     0x402d1a
  402d0d:	8b c3                	mov    %ebx,%eax
  402d0f:	33 d2                	xor    %edx,%edx
  402d11:	f7 75 14             	divl   0x14(%ebp)
  402d14:	8b fb                	mov    %ebx,%edi
  402d16:	2b fa                	sub    %edx,%edi
  402d18:	eb 02                	jmp    0x402d1c
  402d1a:	8b fb                	mov    %ebx,%edi
  402d1c:	57                   	push   %edi
  402d1d:	ff 75 08             	pushl  0x8(%ebp)
  402d20:	ff 76 10             	pushl  0x10(%esi)
  402d23:	e8 2f 1e 00 00       	call   0x404b57
  402d28:	83 c4 0c             	add    $0xc,%esp
  402d2b:	83 f8 ff             	cmp    $0xffffffff,%eax
  402d2e:	74 47                	je     0x402d77
  402d30:	01 45 08             	add    %eax,0x8(%ebp)
  402d33:	2b d8                	sub    %eax,%ebx
  402d35:	3b c7                	cmp    %edi,%eax
  402d37:	72 3e                	jb     0x402d77
  402d39:	8b 7d fc             	mov    -0x4(%ebp),%edi
  402d3c:	eb 29                	jmp    0x402d67
  402d3e:	8b 45 08             	mov    0x8(%ebp),%eax
  402d41:	56                   	push   %esi
  402d42:	0f be 00             	movsbl (%eax),%eax
  402d45:	50                   	push   %eax
  402d46:	e8 1e fe ff ff       	call   0x402b69
  402d4b:	59                   	pop    %ecx
  402d4c:	83 f8 ff             	cmp    $0xffffffff,%eax
  402d4f:	59                   	pop    %ecx
  402d50:	74 2e                	je     0x402d80
  402d52:	ff 45 08             	incl   0x8(%ebp)
  402d55:	8b 46 18             	mov    0x18(%esi),%eax
  402d58:	4b                   	dec    %ebx
  402d59:	89 45 14             	mov    %eax,0x14(%ebp)
  402d5c:	85 c0                	test   %eax,%eax
  402d5e:	7f 07                	jg     0x402d67
  402d60:	c7 45 14 01 00 00 00 	movl   $0x1,0x14(%ebp)
  402d67:	85 db                	test   %ebx,%ebx
  402d69:	0f 85 50 ff ff ff    	jne    0x402cbf
  402d6f:	8b 45 10             	mov    0x10(%ebp),%eax
  402d72:	5f                   	pop    %edi
  402d73:	5e                   	pop    %esi
  402d74:	5b                   	pop    %ebx
  402d75:	c9                   	leave  
  402d76:	c3                   	ret    
  402d77:	83 4e 0c 20          	orl    $0x20,0xc(%esi)
  402d7b:	8b 45 fc             	mov    -0x4(%ebp),%eax
  402d7e:	eb 02                	jmp    0x402d82
  402d80:	8b c7                	mov    %edi,%eax
  402d82:	2b c3                	sub    %ebx,%eax
  402d84:	33 d2                	xor    %edx,%edx
  402d86:	f7 75 0c             	divl   0xc(%ebp)
  402d89:	eb e7                	jmp    0x402d72
  402d8b:	cc                   	int3   
  402d8c:	cc                   	int3   
  402d8d:	cc                   	int3   
  402d8e:	cc                   	int3   
  402d8f:	cc                   	int3   
  402d90:	8b 4c 24 04          	mov    0x4(%esp),%ecx
  402d94:	f7 c1 03 00 00 00    	test   $0x3,%ecx
  402d9a:	74 14                	je     0x402db0
  402d9c:	8a 01                	mov    (%ecx),%al
  402d9e:	41                   	inc    %ecx
  402d9f:	84 c0                	test   %al,%al
  402da1:	74 40                	je     0x402de3
  402da3:	f7 c1 03 00 00 00    	test   $0x3,%ecx
  402da9:	75 f1                	jne    0x402d9c
  402dab:	05 00 00 00 00       	add    $0x0,%eax
  402db0:	8b 01                	mov    (%ecx),%eax
  402db2:	ba ff fe fe 7e       	mov    $0x7efefeff,%edx
  402db7:	03 d0                	add    %eax,%edx
  402db9:	83 f0 ff             	xor    $0xffffffff,%eax
  402dbc:	33 c2                	xor    %edx,%eax
  402dbe:	83 c1 04             	add    $0x4,%ecx
  402dc1:	a9 00 01 01 81       	test   $0x81010100,%eax
  402dc6:	74 e8                	je     0x402db0
  402dc8:	8b 41 fc             	mov    -0x4(%ecx),%eax
  402dcb:	84 c0                	test   %al,%al
  402dcd:	74 32                	je     0x402e01
  402dcf:	84 e4                	test   %ah,%ah
  402dd1:	74 24                	je     0x402df7
  402dd3:	a9 00 00 ff 00       	test   $0xff0000,%eax
  402dd8:	74 13                	je     0x402ded
  402dda:	a9 00 00 00 ff       	test   $0xff000000,%eax
  402ddf:	74 02                	je     0x402de3
  402de1:	eb cd                	jmp    0x402db0
  402de3:	8d 41 ff             	lea    -0x1(%ecx),%eax
  402de6:	8b 4c 24 04          	mov    0x4(%esp),%ecx
  402dea:	2b c1                	sub    %ecx,%eax
  402dec:	c3                   	ret    
  402ded:	8d 41 fe             	lea    -0x2(%ecx),%eax
  402df0:	8b 4c 24 04          	mov    0x4(%esp),%ecx
  402df4:	2b c1                	sub    %ecx,%eax
  402df6:	c3                   	ret    
  402df7:	8d 41 fd             	lea    -0x3(%ecx),%eax
  402dfa:	8b 4c 24 04          	mov    0x4(%esp),%ecx
  402dfe:	2b c1                	sub    %ecx,%eax
  402e00:	c3                   	ret    
  402e01:	8d 41 fc             	lea    -0x4(%ecx),%eax
  402e04:	8b 4c 24 04          	mov    0x4(%esp),%ecx
  402e08:	2b c1                	sub    %ecx,%eax
  402e0a:	c3                   	ret    
  402e0b:	a1 34 94 40 00       	mov    0x409434,%eax
  402e10:	85 c0                	test   %eax,%eax
  402e12:	74 02                	je     0x402e16
  402e14:	ff d0                	call   *%eax
  402e16:	68 14 80 40 00       	push   $0x408014
  402e1b:	68 08 80 40 00       	push   $0x408008
  402e20:	e8 ec 00 00 00       	call   0x402f11
  402e25:	68 04 80 40 00       	push   $0x408004
  402e2a:	68 00 80 40 00       	push   $0x408000
  402e2f:	e8 dd 00 00 00       	call   0x402f11
  402e34:	83 c4 10             	add    $0x10,%esp
  402e37:	c3                   	ret    
  402e38:	6a 00                	push   $0x0
  402e3a:	6a 00                	push   $0x0
  402e3c:	ff 74 24 0c          	pushl  0xc(%esp)
  402e40:	e8 15 00 00 00       	call   0x402e5a
  402e45:	83 c4 0c             	add    $0xc,%esp
  402e48:	c3                   	ret    
  402e49:	6a 00                	push   $0x0
  402e4b:	6a 01                	push   $0x1
  402e4d:	ff 74 24 0c          	pushl  0xc(%esp)
  402e51:	e8 04 00 00 00       	call   0x402e5a
  402e56:	83 c4 0c             	add    $0xc,%esp
  402e59:	c3                   	ret    
  402e5a:	57                   	push   %edi
  402e5b:	e8 9f 00 00 00       	call   0x402eff
  402e60:	6a 01                	push   $0x1
  402e62:	5f                   	pop    %edi
  402e63:	39 3d b8 8d 40 00    	cmp    %edi,0x408db8
  402e69:	75 11                	jne    0x402e7c
  402e6b:	ff 74 24 08          	pushl  0x8(%esp)
  402e6f:	ff 15 2c 70 40 00    	call   *0x40702c
  402e75:	50                   	push   %eax
  402e76:	ff 15 28 70 40 00    	call   *0x407028
  402e7c:	83 7c 24 0c 00       	cmpl   $0x0,0xc(%esp)
  402e81:	53                   	push   %ebx
  402e82:	8b 5c 24 14          	mov    0x14(%esp),%ebx
  402e86:	89 3d b4 8d 40 00    	mov    %edi,0x408db4
  402e8c:	88 1d b0 8d 40 00    	mov    %bl,0x408db0
  402e92:	75 3c                	jne    0x402ed0
  402e94:	a1 30 94 40 00       	mov    0x409430,%eax
  402e99:	85 c0                	test   %eax,%eax
  402e9b:	74 22                	je     0x402ebf
  402e9d:	8b 0d 2c 94 40 00    	mov    0x40942c,%ecx
  402ea3:	56                   	push   %esi
  402ea4:	8d 71 fc             	lea    -0x4(%ecx),%esi
  402ea7:	3b f0                	cmp    %eax,%esi
  402ea9:	72 13                	jb     0x402ebe
  402eab:	8b 06                	mov    (%esi),%eax
  402ead:	85 c0                	test   %eax,%eax
  402eaf:	74 02                	je     0x402eb3
  402eb1:	ff d0                	call   *%eax
  402eb3:	83 ee 04             	sub    $0x4,%esi
  402eb6:	3b 35 30 94 40 00    	cmp    0x409430,%esi
  402ebc:	73 ed                	jae    0x402eab
  402ebe:	5e                   	pop    %esi
  402ebf:	68 20 80 40 00       	push   $0x408020
  402ec4:	68 18 80 40 00       	push   $0x408018
  402ec9:	e8 43 00 00 00       	call   0x402f11
  402ece:	59                   	pop    %ecx
  402ecf:	59                   	pop    %ecx
  402ed0:	68 28 80 40 00       	push   $0x408028
  402ed5:	68 24 80 40 00       	push   $0x408024
  402eda:	e8 32 00 00 00       	call   0x402f11
  402edf:	59                   	pop    %ecx
  402ee0:	59                   	pop    %ecx
  402ee1:	85 db                	test   %ebx,%ebx
  402ee3:	5b                   	pop    %ebx
  402ee4:	74 07                	je     0x402eed
  402ee6:	e8 1d 00 00 00       	call   0x402f08
  402eeb:	5f                   	pop    %edi
  402eec:	c3                   	ret    
  402eed:	ff 74 24 08          	pushl  0x8(%esp)
  402ef1:	89 3d b8 8d 40 00    	mov    %edi,0x408db8
  402ef7:	ff 15 08 70 40 00    	call   *0x407008
  402efd:	5f                   	pop    %edi
  402efe:	c3                   	ret    
  402eff:	6a 0d                	push   $0xd
  402f01:	e8 31 0d 00 00       	call   0x403c37
  402f06:	59                   	pop    %ecx
  402f07:	c3                   	ret    
  402f08:	6a 0d                	push   $0xd
  402f0a:	e8 89 0d 00 00       	call   0x403c98
  402f0f:	59                   	pop    %ecx
  402f10:	c3                   	ret    
  402f11:	56                   	push   %esi
  402f12:	8b 74 24 08          	mov    0x8(%esp),%esi
  402f16:	3b 74 24 0c          	cmp    0xc(%esp),%esi
  402f1a:	73 0d                	jae    0x402f29
  402f1c:	8b 06                	mov    (%esi),%eax
  402f1e:	85 c0                	test   %eax,%eax
  402f20:	74 02                	je     0x402f24
  402f22:	ff d0                	call   *%eax
  402f24:	83 c6 04             	add    $0x4,%esi
  402f27:	eb ed                	jmp    0x402f16
  402f29:	5e                   	pop    %esi
  402f2a:	c3                   	ret    
  402f2b:	55                   	push   %ebp
  402f2c:	8b ec                	mov    %esp,%ebp
  402f2e:	51                   	push   %ecx
  402f2f:	53                   	push   %ebx
  402f30:	56                   	push   %esi
  402f31:	e8 c8 07 00 00       	call   0x4036fe
  402f36:	8b f0                	mov    %eax,%esi
  402f38:	ff 76 50             	pushl  0x50(%esi)
  402f3b:	ff 75 08             	pushl  0x8(%ebp)
  402f3e:	e8 26 01 00 00       	call   0x403069
  402f43:	59                   	pop    %ecx
  402f44:	85 c0                	test   %eax,%eax
  402f46:	59                   	pop    %ecx
  402f47:	0f 84 0f 01 00 00    	je     0x40305c
  402f4d:	8b 58 08             	mov    0x8(%eax),%ebx
  402f50:	85 db                	test   %ebx,%ebx
  402f52:	89 5d 08             	mov    %ebx,0x8(%ebp)
  402f55:	0f 84 01 01 00 00    	je     0x40305c
  402f5b:	83 fb 05             	cmp    $0x5,%ebx
  402f5e:	75 0c                	jne    0x402f6c
  402f60:	83 60 08 00          	andl   $0x0,0x8(%eax)
  402f64:	6a 01                	push   $0x1
  402f66:	58                   	pop    %eax
  402f67:	e9 f9 00 00 00       	jmp    0x403065
  402f6c:	83 fb 01             	cmp    $0x1,%ebx
  402f6f:	0f 84 e2 00 00 00    	je     0x403057
  402f75:	8b 4e 54             	mov    0x54(%esi),%ecx
  402f78:	89 4d fc             	mov    %ecx,-0x4(%ebp)
  402f7b:	8b 4d 0c             	mov    0xc(%ebp),%ecx
  402f7e:	89 4e 54             	mov    %ecx,0x54(%esi)
  402f81:	8b 48 04             	mov    0x4(%eax),%ecx
  402f84:	83 f9 08             	cmp    $0x8,%ecx
  402f87:	0f 85 bc 00 00 00    	jne    0x403049
  402f8d:	8b 15 d8 83 40 00    	mov    0x4083d8,%edx
  402f93:	8b 0d dc 83 40 00    	mov    0x4083dc,%ecx
  402f99:	03 ca                	add    %edx,%ecx
  402f9b:	57                   	push   %edi
  402f9c:	3b d1                	cmp    %ecx,%edx
  402f9e:	7d 27                	jge    0x402fc7
  402fa0:	8d 0c 52             	lea    (%edx,%edx,2),%ecx
  402fa3:	c1 e1 02             	shl    $0x2,%ecx
  402fa6:	8b 7e 50             	mov    0x50(%esi),%edi
  402fa9:	83 c1 0c             	add    $0xc,%ecx
  402fac:	83 64 39 fc 00       	andl   $0x0,-0x4(%ecx,%edi,1)
  402fb1:	8b 3d d8 83 40 00    	mov    0x4083d8,%edi
  402fb7:	8b 1d dc 83 40 00    	mov    0x4083dc,%ebx
  402fbd:	42                   	inc    %edx
  402fbe:	03 df                	add    %edi,%ebx
  402fc0:	3b d3                	cmp    %ebx,%edx
  402fc2:	7c e2                	jl     0x402fa6
  402fc4:	8b 5d 08             	mov    0x8(%ebp),%ebx
  402fc7:	8b 00                	mov    (%eax),%eax
  402fc9:	8b 7e 58             	mov    0x58(%esi),%edi
  402fcc:	3d 8e 00 00 c0       	cmp    $0xc000008e,%eax
  402fd1:	75 09                	jne    0x402fdc
  402fd3:	c7 46 58 83 00 00 00 	movl   $0x83,0x58(%esi)
  402fda:	eb 5e                	jmp    0x40303a
  402fdc:	3d 90 00 00 c0       	cmp    $0xc0000090,%eax
  402fe1:	75 09                	jne    0x402fec
  402fe3:	c7 46 58 81 00 00 00 	movl   $0x81,0x58(%esi)
  402fea:	eb 4e                	jmp    0x40303a
  402fec:	3d 91 00 00 c0       	cmp    $0xc0000091,%eax
  402ff1:	75 09                	jne    0x402ffc
  402ff3:	c7 46 58 84 00 00 00 	movl   $0x84,0x58(%esi)
  402ffa:	eb 3e                	jmp    0x40303a
  402ffc:	3d 93 00 00 c0       	cmp    $0xc0000093,%eax
  403001:	75 09                	jne    0x40300c
  403003:	c7 46 58 85 00 00 00 	movl   $0x85,0x58(%esi)
  40300a:	eb 2e                	jmp    0x40303a
  40300c:	3d 8d 00 00 c0       	cmp    $0xc000008d,%eax
  403011:	75 09                	jne    0x40301c
  403013:	c7 46 58 82 00 00 00 	movl   $0x82,0x58(%esi)
  40301a:	eb 1e                	jmp    0x40303a
  40301c:	3d 8f 00 00 c0       	cmp    $0xc000008f,%eax
  403021:	75 09                	jne    0x40302c
  403023:	c7 46 58 86 00 00 00 	movl   $0x86,0x58(%esi)
  40302a:	eb 0e                	jmp    0x40303a
  40302c:	3d 92 00 00 c0       	cmp    $0xc0000092,%eax
  403031:	75 07                	jne    0x40303a
  403033:	c7 46 58 8a 00 00 00 	movl   $0x8a,0x58(%esi)
  40303a:	ff 76 58             	pushl  0x58(%esi)
  40303d:	6a 08                	push   $0x8
  40303f:	ff d3                	call   *%ebx
  403041:	59                   	pop    %ecx
  403042:	89 7e 58             	mov    %edi,0x58(%esi)
  403045:	59                   	pop    %ecx
  403046:	5f                   	pop    %edi
  403047:	eb 08                	jmp    0x403051
  403049:	83 60 08 00          	andl   $0x0,0x8(%eax)
  40304d:	51                   	push   %ecx
  40304e:	ff d3                	call   *%ebx
  403050:	59                   	pop    %ecx
  403051:	8b 45 fc             	mov    -0x4(%ebp),%eax
  403054:	89 46 54             	mov    %eax,0x54(%esi)
  403057:	83 c8 ff             	or     $0xffffffff,%eax
  40305a:	eb 09                	jmp    0x403065
  40305c:	ff 75 0c             	pushl  0xc(%ebp)
  40305f:	ff 15 30 70 40 00    	call   *0x407030
  403065:	5e                   	pop    %esi
  403066:	5b                   	pop    %ebx
  403067:	c9                   	leave  
  403068:	c3                   	ret    
  403069:	8b 54 24 08          	mov    0x8(%esp),%edx
  40306d:	8b 0d e4 83 40 00    	mov    0x4083e4,%ecx
  403073:	56                   	push   %esi
  403074:	8b 74 24 08          	mov    0x8(%esp),%esi
  403078:	39 32                	cmp    %esi,(%edx)
  40307a:	57                   	push   %edi
  40307b:	8b c2                	mov    %edx,%eax
  40307d:	74 11                	je     0x403090
  40307f:	8d 3c 49             	lea    (%ecx,%ecx,2),%edi
  403082:	8d 3c ba             	lea    (%edx,%edi,4),%edi
  403085:	83 c0 0c             	add    $0xc,%eax
  403088:	3b c7                	cmp    %edi,%eax
  40308a:	73 04                	jae    0x403090
  40308c:	39 30                	cmp    %esi,(%eax)
  40308e:	75 f5                	jne    0x403085
  403090:	8d 0c 49             	lea    (%ecx,%ecx,2),%ecx
  403093:	8d 0c 8a             	lea    (%edx,%ecx,4),%ecx
  403096:	3b c1                	cmp    %ecx,%eax
  403098:	73 04                	jae    0x40309e
  40309a:	39 30                	cmp    %esi,(%eax)
  40309c:	74 02                	je     0x4030a0
  40309e:	33 c0                	xor    %eax,%eax
  4030a0:	5f                   	pop    %edi
  4030a1:	5e                   	pop    %esi
  4030a2:	c3                   	ret    
  4030a3:	53                   	push   %ebx
  4030a4:	33 db                	xor    %ebx,%ebx
  4030a6:	39 1d 28 94 40 00    	cmp    %ebx,0x409428
  4030ac:	56                   	push   %esi
  4030ad:	57                   	push   %edi
  4030ae:	75 05                	jne    0x4030b5
  4030b0:	e8 53 25 00 00       	call   0x405608
  4030b5:	8b 35 60 8d 40 00    	mov    0x408d60,%esi
  4030bb:	33 ff                	xor    %edi,%edi
  4030bd:	8a 06                	mov    (%esi),%al
  4030bf:	3a c3                	cmp    %bl,%al
  4030c1:	74 12                	je     0x4030d5
  4030c3:	3c 3d                	cmp    $0x3d,%al
  4030c5:	74 01                	je     0x4030c8
  4030c7:	47                   	inc    %edi
  4030c8:	56                   	push   %esi
  4030c9:	e8 c2 fc ff ff       	call   0x402d90
  4030ce:	59                   	pop    %ecx
  4030cf:	8d 74 06 01          	lea    0x1(%esi,%eax,1),%esi
  4030d3:	eb e8                	jmp    0x4030bd
  4030d5:	8d 04 bd 04 00 00 00 	lea    0x4(,%edi,4),%eax
  4030dc:	50                   	push   %eax
  4030dd:	e8 cb 0b 00 00       	call   0x403cad
  4030e2:	8b f0                	mov    %eax,%esi
  4030e4:	59                   	pop    %ecx
  4030e5:	3b f3                	cmp    %ebx,%esi
  4030e7:	89 35 98 8d 40 00    	mov    %esi,0x408d98
  4030ed:	75 08                	jne    0x4030f7
  4030ef:	6a 09                	push   $0x9
  4030f1:	e8 ba e4 ff ff       	call   0x4015b0
  4030f6:	59                   	pop    %ecx
  4030f7:	8b 3d 60 8d 40 00    	mov    0x408d60,%edi
  4030fd:	38 1f                	cmp    %bl,(%edi)
  4030ff:	74 39                	je     0x40313a
  403101:	55                   	push   %ebp
  403102:	57                   	push   %edi
  403103:	e8 88 fc ff ff       	call   0x402d90
  403108:	8b e8                	mov    %eax,%ebp
  40310a:	59                   	pop    %ecx
  40310b:	45                   	inc    %ebp
  40310c:	80 3f 3d             	cmpb   $0x3d,(%edi)
  40310f:	74 22                	je     0x403133
  403111:	55                   	push   %ebp
  403112:	e8 96 0b 00 00       	call   0x403cad
  403117:	3b c3                	cmp    %ebx,%eax
  403119:	59                   	pop    %ecx
  40311a:	89 06                	mov    %eax,(%esi)
  40311c:	75 08                	jne    0x403126
  40311e:	6a 09                	push   $0x9
  403120:	e8 8b e4 ff ff       	call   0x4015b0
  403125:	59                   	pop    %ecx
  403126:	57                   	push   %edi
  403127:	ff 36                	pushl  (%esi)
  403129:	e8 12 20 00 00       	call   0x405140
  40312e:	59                   	pop    %ecx
  40312f:	83 c6 04             	add    $0x4,%esi
  403132:	59                   	pop    %ecx
  403133:	03 fd                	add    %ebp,%edi
  403135:	38 1f                	cmp    %bl,(%edi)
  403137:	75 c9                	jne    0x403102
  403139:	5d                   	pop    %ebp
  40313a:	ff 35 60 8d 40 00    	pushl  0x408d60
  403140:	e8 d5 ee ff ff       	call   0x40201a
  403145:	59                   	pop    %ecx
  403146:	89 1d 60 8d 40 00    	mov    %ebx,0x408d60
  40314c:	89 1e                	mov    %ebx,(%esi)
  40314e:	5f                   	pop    %edi
  40314f:	5e                   	pop    %esi
  403150:	c7 05 24 94 40 00 01 	movl   $0x1,0x409424
  403157:	00 00 00 
  40315a:	5b                   	pop    %ebx
  40315b:	c3                   	ret    
  40315c:	55                   	push   %ebp
  40315d:	8b ec                	mov    %esp,%ebp
  40315f:	51                   	push   %ecx
  403160:	51                   	push   %ecx
  403161:	53                   	push   %ebx
  403162:	33 db                	xor    %ebx,%ebx
  403164:	39 1d 28 94 40 00    	cmp    %ebx,0x409428
  40316a:	56                   	push   %esi
  40316b:	57                   	push   %edi
  40316c:	75 05                	jne    0x403173
  40316e:	e8 95 24 00 00       	call   0x405608
  403173:	be bc 8d 40 00       	mov    $0x408dbc,%esi
  403178:	68 04 01 00 00       	push   $0x104
  40317d:	56                   	push   %esi
  40317e:	53                   	push   %ebx
  40317f:	ff 15 34 70 40 00    	call   *0x407034
  403185:	a1 44 a4 40 00       	mov    0x40a444,%eax
  40318a:	89 35 a8 8d 40 00    	mov    %esi,0x408da8
  403190:	8b fe                	mov    %esi,%edi
  403192:	38 18                	cmp    %bl,(%eax)
  403194:	74 02                	je     0x403198
  403196:	8b f8                	mov    %eax,%edi
  403198:	8d 45 f8             	lea    -0x8(%ebp),%eax
  40319b:	50                   	push   %eax
  40319c:	8d 45 fc             	lea    -0x4(%ebp),%eax
  40319f:	50                   	push   %eax
  4031a0:	53                   	push   %ebx
  4031a1:	53                   	push   %ebx
  4031a2:	57                   	push   %edi
  4031a3:	e8 4d 00 00 00       	call   0x4031f5
  4031a8:	8b 45 f8             	mov    -0x8(%ebp),%eax
  4031ab:	8b 4d fc             	mov    -0x4(%ebp),%ecx
  4031ae:	8d 04 88             	lea    (%eax,%ecx,4),%eax
  4031b1:	50                   	push   %eax
  4031b2:	e8 f6 0a 00 00       	call   0x403cad
  4031b7:	8b f0                	mov    %eax,%esi
  4031b9:	83 c4 18             	add    $0x18,%esp
  4031bc:	3b f3                	cmp    %ebx,%esi
  4031be:	75 08                	jne    0x4031c8
  4031c0:	6a 08                	push   $0x8
  4031c2:	e8 e9 e3 ff ff       	call   0x4015b0
  4031c7:	59                   	pop    %ecx
  4031c8:	8d 45 f8             	lea    -0x8(%ebp),%eax
  4031cb:	50                   	push   %eax
  4031cc:	8d 45 fc             	lea    -0x4(%ebp),%eax
  4031cf:	50                   	push   %eax
  4031d0:	8b 45 fc             	mov    -0x4(%ebp),%eax
  4031d3:	8d 04 86             	lea    (%esi,%eax,4),%eax
  4031d6:	50                   	push   %eax
  4031d7:	56                   	push   %esi
  4031d8:	57                   	push   %edi
  4031d9:	e8 17 00 00 00       	call   0x4031f5
  4031de:	8b 45 fc             	mov    -0x4(%ebp),%eax
  4031e1:	83 c4 14             	add    $0x14,%esp
  4031e4:	48                   	dec    %eax
  4031e5:	89 35 90 8d 40 00    	mov    %esi,0x408d90
  4031eb:	5f                   	pop    %edi
  4031ec:	5e                   	pop    %esi
  4031ed:	a3 8c 8d 40 00       	mov    %eax,0x408d8c
  4031f2:	5b                   	pop    %ebx
  4031f3:	c9                   	leave  
  4031f4:	c3                   	ret    
  4031f5:	55                   	push   %ebp
  4031f6:	8b ec                	mov    %esp,%ebp
  4031f8:	8b 4d 18             	mov    0x18(%ebp),%ecx
  4031fb:	8b 45 14             	mov    0x14(%ebp),%eax
  4031fe:	53                   	push   %ebx
  4031ff:	56                   	push   %esi
  403200:	83 21 00             	andl   $0x0,(%ecx)
  403203:	8b 75 10             	mov    0x10(%ebp),%esi
  403206:	57                   	push   %edi
  403207:	8b 7d 0c             	mov    0xc(%ebp),%edi
  40320a:	c7 00 01 00 00 00    	movl   $0x1,(%eax)
  403210:	8b 45 08             	mov    0x8(%ebp),%eax
  403213:	85 ff                	test   %edi,%edi
  403215:	74 08                	je     0x40321f
  403217:	89 37                	mov    %esi,(%edi)
  403219:	83 c7 04             	add    $0x4,%edi
  40321c:	89 7d 0c             	mov    %edi,0xc(%ebp)
  40321f:	80 38 22             	cmpb   $0x22,(%eax)
  403222:	75 44                	jne    0x403268
  403224:	8a 50 01             	mov    0x1(%eax),%dl
  403227:	40                   	inc    %eax
  403228:	80 fa 22             	cmp    $0x22,%dl
  40322b:	74 29                	je     0x403256
  40322d:	84 d2                	test   %dl,%dl
  40322f:	74 25                	je     0x403256
  403231:	0f b6 d2             	movzbl %dl,%edx
  403234:	f6 82 e1 91 40 00 04 	testb  $0x4,0x4091e1(%edx)
  40323b:	74 0c                	je     0x403249
  40323d:	ff 01                	incl   (%ecx)
  40323f:	85 f6                	test   %esi,%esi
  403241:	74 06                	je     0x403249
  403243:	8a 10                	mov    (%eax),%dl
  403245:	88 16                	mov    %dl,(%esi)
  403247:	46                   	inc    %esi
  403248:	40                   	inc    %eax
  403249:	ff 01                	incl   (%ecx)
  40324b:	85 f6                	test   %esi,%esi
  40324d:	74 d5                	je     0x403224
  40324f:	8a 10                	mov    (%eax),%dl
  403251:	88 16                	mov    %dl,(%esi)
  403253:	46                   	inc    %esi
  403254:	eb ce                	jmp    0x403224
  403256:	ff 01                	incl   (%ecx)
  403258:	85 f6                	test   %esi,%esi
  40325a:	74 04                	je     0x403260
  40325c:	80 26 00             	andb   $0x0,(%esi)
  40325f:	46                   	inc    %esi
  403260:	80 38 22             	cmpb   $0x22,(%eax)
  403263:	75 46                	jne    0x4032ab
  403265:	40                   	inc    %eax
  403266:	eb 43                	jmp    0x4032ab
  403268:	ff 01                	incl   (%ecx)
  40326a:	85 f6                	test   %esi,%esi
  40326c:	74 05                	je     0x403273
  40326e:	8a 10                	mov    (%eax),%dl
  403270:	88 16                	mov    %dl,(%esi)
  403272:	46                   	inc    %esi
  403273:	8a 10                	mov    (%eax),%dl
  403275:	40                   	inc    %eax
  403276:	0f b6 da             	movzbl %dl,%ebx
  403279:	f6 83 e1 91 40 00 04 	testb  $0x4,0x4091e1(%ebx)
  403280:	74 0c                	je     0x40328e
  403282:	ff 01                	incl   (%ecx)
  403284:	85 f6                	test   %esi,%esi
  403286:	74 05                	je     0x40328d
  403288:	8a 18                	mov    (%eax),%bl
  40328a:	88 1e                	mov    %bl,(%esi)
  40328c:	46                   	inc    %esi
  40328d:	40                   	inc    %eax
  40328e:	80 fa 20             	cmp    $0x20,%dl
  403291:	74 09                	je     0x40329c
  403293:	84 d2                	test   %dl,%dl
  403295:	74 09                	je     0x4032a0
  403297:	80 fa 09             	cmp    $0x9,%dl
  40329a:	75 cc                	jne    0x403268
  40329c:	84 d2                	test   %dl,%dl
  40329e:	75 03                	jne    0x4032a3
  4032a0:	48                   	dec    %eax
  4032a1:	eb 08                	jmp    0x4032ab
  4032a3:	85 f6                	test   %esi,%esi
  4032a5:	74 04                	je     0x4032ab
  4032a7:	80 66 ff 00          	andb   $0x0,-0x1(%esi)
  4032ab:	83 65 18 00          	andl   $0x0,0x18(%ebp)
  4032af:	80 38 00             	cmpb   $0x0,(%eax)
  4032b2:	0f 84 e0 00 00 00    	je     0x403398
  4032b8:	8a 10                	mov    (%eax),%dl
  4032ba:	80 fa 20             	cmp    $0x20,%dl
  4032bd:	74 05                	je     0x4032c4
  4032bf:	80 fa 09             	cmp    $0x9,%dl
  4032c2:	75 03                	jne    0x4032c7
  4032c4:	40                   	inc    %eax
  4032c5:	eb f1                	jmp    0x4032b8
  4032c7:	80 38 00             	cmpb   $0x0,(%eax)
  4032ca:	0f 84 c8 00 00 00    	je     0x403398
  4032d0:	85 ff                	test   %edi,%edi
  4032d2:	74 08                	je     0x4032dc
  4032d4:	89 37                	mov    %esi,(%edi)
  4032d6:	83 c7 04             	add    $0x4,%edi
  4032d9:	89 7d 0c             	mov    %edi,0xc(%ebp)
  4032dc:	8b 55 14             	mov    0x14(%ebp),%edx
  4032df:	ff 02                	incl   (%edx)
  4032e1:	c7 45 08 01 00 00 00 	movl   $0x1,0x8(%ebp)
  4032e8:	33 db                	xor    %ebx,%ebx
  4032ea:	80 38 5c             	cmpb   $0x5c,(%eax)
  4032ed:	75 04                	jne    0x4032f3
  4032ef:	40                   	inc    %eax
  4032f0:	43                   	inc    %ebx
  4032f1:	eb f7                	jmp    0x4032ea
  4032f3:	80 38 22             	cmpb   $0x22,(%eax)
  4032f6:	75 2c                	jne    0x403324
  4032f8:	f6 c3 01             	test   $0x1,%bl
  4032fb:	75 25                	jne    0x403322
  4032fd:	33 ff                	xor    %edi,%edi
  4032ff:	39 7d 18             	cmp    %edi,0x18(%ebp)
  403302:	74 0d                	je     0x403311
  403304:	80 78 01 22          	cmpb   $0x22,0x1(%eax)
  403308:	8d 50 01             	lea    0x1(%eax),%edx
  40330b:	75 04                	jne    0x403311
  40330d:	8b c2                	mov    %edx,%eax
  40330f:	eb 03                	jmp    0x403314
  403311:	89 7d 08             	mov    %edi,0x8(%ebp)
  403314:	8b 7d 0c             	mov    0xc(%ebp),%edi
  403317:	33 d2                	xor    %edx,%edx
  403319:	39 55 18             	cmp    %edx,0x18(%ebp)
  40331c:	0f 94 c2             	sete   %dl
  40331f:	89 55 18             	mov    %edx,0x18(%ebp)
  403322:	d1 eb                	shr    %ebx
  403324:	8b d3                	mov    %ebx,%edx
  403326:	4b                   	dec    %ebx
  403327:	85 d2                	test   %edx,%edx
  403329:	74 0e                	je     0x403339
  40332b:	43                   	inc    %ebx
  40332c:	85 f6                	test   %esi,%esi
  40332e:	74 04                	je     0x403334
  403330:	c6 06 5c             	movb   $0x5c,(%esi)
  403333:	46                   	inc    %esi
  403334:	ff 01                	incl   (%ecx)
  403336:	4b                   	dec    %ebx
  403337:	75 f3                	jne    0x40332c
  403339:	8a 10                	mov    (%eax),%dl
  40333b:	84 d2                	test   %dl,%dl
  40333d:	74 4a                	je     0x403389
  40333f:	83 7d 18 00          	cmpl   $0x0,0x18(%ebp)
  403343:	75 0a                	jne    0x40334f
  403345:	80 fa 20             	cmp    $0x20,%dl
  403348:	74 3f                	je     0x403389
  40334a:	80 fa 09             	cmp    $0x9,%dl
  40334d:	74 3a                	je     0x403389
  40334f:	83 7d 08 00          	cmpl   $0x0,0x8(%ebp)
  403353:	74 2e                	je     0x403383
  403355:	85 f6                	test   %esi,%esi
  403357:	74 19                	je     0x403372
  403359:	0f b6 da             	movzbl %dl,%ebx
  40335c:	f6 83 e1 91 40 00 04 	testb  $0x4,0x4091e1(%ebx)
  403363:	74 06                	je     0x40336b
  403365:	88 16                	mov    %dl,(%esi)
  403367:	46                   	inc    %esi
  403368:	40                   	inc    %eax
  403369:	ff 01                	incl   (%ecx)
  40336b:	8a 10                	mov    (%eax),%dl
  40336d:	88 16                	mov    %dl,(%esi)
  40336f:	46                   	inc    %esi
  403370:	eb 0f                	jmp    0x403381
  403372:	0f b6 d2             	movzbl %dl,%edx
  403375:	f6 82 e1 91 40 00 04 	testb  $0x4,0x4091e1(%edx)
  40337c:	74 03                	je     0x403381
  40337e:	40                   	inc    %eax
  40337f:	ff 01                	incl   (%ecx)
  403381:	ff 01                	incl   (%ecx)
  403383:	40                   	inc    %eax
  403384:	e9 58 ff ff ff       	jmp    0x4032e1
  403389:	85 f6                	test   %esi,%esi
  40338b:	74 04                	je     0x403391
  40338d:	80 26 00             	andb   $0x0,(%esi)
  403390:	46                   	inc    %esi
  403391:	ff 01                	incl   (%ecx)
  403393:	e9 17 ff ff ff       	jmp    0x4032af
  403398:	85 ff                	test   %edi,%edi
  40339a:	74 03                	je     0x40339f
  40339c:	83 27 00             	andl   $0x0,(%edi)
  40339f:	8b 45 14             	mov    0x14(%ebp),%eax
  4033a2:	5f                   	pop    %edi
  4033a3:	5e                   	pop    %esi
  4033a4:	5b                   	pop    %ebx
  4033a5:	ff 00                	incl   (%eax)
  4033a7:	5d                   	pop    %ebp
  4033a8:	c3                   	ret    
  4033a9:	51                   	push   %ecx
  4033aa:	51                   	push   %ecx
  4033ab:	a1 c0 8e 40 00       	mov    0x408ec0,%eax
  4033b0:	53                   	push   %ebx
  4033b1:	55                   	push   %ebp
  4033b2:	8b 2d 48 70 40 00    	mov    0x407048,%ebp
  4033b8:	56                   	push   %esi
  4033b9:	57                   	push   %edi
  4033ba:	33 db                	xor    %ebx,%ebx
  4033bc:	33 f6                	xor    %esi,%esi
  4033be:	33 ff                	xor    %edi,%edi
  4033c0:	3b c3                	cmp    %ebx,%eax
  4033c2:	75 33                	jne    0x4033f7
  4033c4:	ff d5                	call   *%ebp
  4033c6:	8b f0                	mov    %eax,%esi
  4033c8:	3b f3                	cmp    %ebx,%esi
  4033ca:	74 0c                	je     0x4033d8
  4033cc:	c7 05 c0 8e 40 00 01 	movl   $0x1,0x408ec0
  4033d3:	00 00 00 
  4033d6:	eb 28                	jmp    0x403400
  4033d8:	ff 15 44 70 40 00    	call   *0x407044
  4033de:	8b f8                	mov    %eax,%edi
  4033e0:	3b fb                	cmp    %ebx,%edi
  4033e2:	0f 84 ea 00 00 00    	je     0x4034d2
  4033e8:	c7 05 c0 8e 40 00 02 	movl   $0x2,0x408ec0
  4033ef:	00 00 00 
  4033f2:	e9 8f 00 00 00       	jmp    0x403486
  4033f7:	83 f8 01             	cmp    $0x1,%eax
  4033fa:	0f 85 81 00 00 00    	jne    0x403481
  403400:	3b f3                	cmp    %ebx,%esi
  403402:	75 0c                	jne    0x403410
  403404:	ff d5                	call   *%ebp
  403406:	8b f0                	mov    %eax,%esi
  403408:	3b f3                	cmp    %ebx,%esi
  40340a:	0f 84 c2 00 00 00    	je     0x4034d2
  403410:	66 39 1e             	cmp    %bx,(%esi)
  403413:	8b c6                	mov    %esi,%eax
  403415:	74 0e                	je     0x403425
  403417:	40                   	inc    %eax
  403418:	40                   	inc    %eax
  403419:	66 39 18             	cmp    %bx,(%eax)
  40341c:	75 f9                	jne    0x403417
  40341e:	40                   	inc    %eax
  40341f:	40                   	inc    %eax
  403420:	66 39 18             	cmp    %bx,(%eax)
  403423:	75 f2                	jne    0x403417
  403425:	2b c6                	sub    %esi,%eax
  403427:	8b 3d 40 70 40 00    	mov    0x407040,%edi
  40342d:	d1 f8                	sar    %eax
  40342f:	53                   	push   %ebx
  403430:	53                   	push   %ebx
  403431:	40                   	inc    %eax
  403432:	53                   	push   %ebx
  403433:	53                   	push   %ebx
  403434:	50                   	push   %eax
  403435:	56                   	push   %esi
  403436:	53                   	push   %ebx
  403437:	53                   	push   %ebx
  403438:	89 44 24 34          	mov    %eax,0x34(%esp)
  40343c:	ff d7                	call   *%edi
  40343e:	8b e8                	mov    %eax,%ebp
  403440:	3b eb                	cmp    %ebx,%ebp
  403442:	74 32                	je     0x403476
  403444:	55                   	push   %ebp
  403445:	e8 63 08 00 00       	call   0x403cad
  40344a:	3b c3                	cmp    %ebx,%eax
  40344c:	59                   	pop    %ecx
  40344d:	89 44 24 10          	mov    %eax,0x10(%esp)
  403451:	74 23                	je     0x403476
  403453:	53                   	push   %ebx
  403454:	53                   	push   %ebx
  403455:	55                   	push   %ebp
  403456:	50                   	push   %eax
  403457:	ff 74 24 24          	pushl  0x24(%esp)
  40345b:	56                   	push   %esi
  40345c:	53                   	push   %ebx
  40345d:	53                   	push   %ebx
  40345e:	ff d7                	call   *%edi
  403460:	85 c0                	test   %eax,%eax
  403462:	75 0e                	jne    0x403472
  403464:	ff 74 24 10          	pushl  0x10(%esp)
  403468:	e8 ad eb ff ff       	call   0x40201a
  40346d:	59                   	pop    %ecx
  40346e:	89 5c 24 10          	mov    %ebx,0x10(%esp)
  403472:	8b 5c 24 10          	mov    0x10(%esp),%ebx
  403476:	56                   	push   %esi
  403477:	ff 15 3c 70 40 00    	call   *0x40703c
  40347d:	8b c3                	mov    %ebx,%eax
  40347f:	eb 53                	jmp    0x4034d4
  403481:	83 f8 02             	cmp    $0x2,%eax
  403484:	75 4c                	jne    0x4034d2
  403486:	3b fb                	cmp    %ebx,%edi
  403488:	75 0c                	jne    0x403496
  40348a:	ff 15 44 70 40 00    	call   *0x407044
  403490:	8b f8                	mov    %eax,%edi
  403492:	3b fb                	cmp    %ebx,%edi
  403494:	74 3c                	je     0x4034d2
  403496:	38 1f                	cmp    %bl,(%edi)
  403498:	8b c7                	mov    %edi,%eax
  40349a:	74 0a                	je     0x4034a6
  40349c:	40                   	inc    %eax
  40349d:	38 18                	cmp    %bl,(%eax)
  40349f:	75 fb                	jne    0x40349c
  4034a1:	40                   	inc    %eax
  4034a2:	38 18                	cmp    %bl,(%eax)
  4034a4:	75 f6                	jne    0x40349c
  4034a6:	2b c7                	sub    %edi,%eax
  4034a8:	40                   	inc    %eax
  4034a9:	8b e8                	mov    %eax,%ebp
  4034ab:	55                   	push   %ebp
  4034ac:	e8 fc 07 00 00       	call   0x403cad
  4034b1:	8b f0                	mov    %eax,%esi
  4034b3:	59                   	pop    %ecx
  4034b4:	3b f3                	cmp    %ebx,%esi
  4034b6:	75 04                	jne    0x4034bc
  4034b8:	33 f6                	xor    %esi,%esi
  4034ba:	eb 0b                	jmp    0x4034c7
  4034bc:	55                   	push   %ebp
  4034bd:	57                   	push   %edi
  4034be:	56                   	push   %esi
  4034bf:	e8 fc f0 ff ff       	call   0x4025c0
  4034c4:	83 c4 0c             	add    $0xc,%esp
  4034c7:	57                   	push   %edi
  4034c8:	ff 15 38 70 40 00    	call   *0x407038
  4034ce:	8b c6                	mov    %esi,%eax
  4034d0:	eb 02                	jmp    0x4034d4
  4034d2:	33 c0                	xor    %eax,%eax
  4034d4:	5f                   	pop    %edi
  4034d5:	5e                   	pop    %esi
  4034d6:	5d                   	pop    %ebp
  4034d7:	5b                   	pop    %ebx
  4034d8:	59                   	pop    %ecx
  4034d9:	59                   	pop    %ecx
  4034da:	c3                   	ret    
  4034db:	55                   	push   %ebp
  4034dc:	8b ec                	mov    %esp,%ebp
  4034de:	83 ec 48             	sub    $0x48,%esp
  4034e1:	53                   	push   %ebx
  4034e2:	56                   	push   %esi
  4034e3:	57                   	push   %edi
  4034e4:	68 80 04 00 00       	push   $0x480
  4034e9:	e8 bf 07 00 00       	call   0x403cad
  4034ee:	8b f0                	mov    %eax,%esi
  4034f0:	59                   	pop    %ecx
  4034f1:	85 f6                	test   %esi,%esi
  4034f3:	75 08                	jne    0x4034fd
  4034f5:	6a 1b                	push   $0x1b
  4034f7:	e8 b4 e0 ff ff       	call   0x4015b0
  4034fc:	59                   	pop    %ecx
  4034fd:	89 35 20 93 40 00    	mov    %esi,0x409320
  403503:	c7 05 20 94 40 00 20 	movl   $0x20,0x409420
  40350a:	00 00 00 
  40350d:	8d 86 80 04 00 00    	lea    0x480(%esi),%eax
  403513:	3b f0                	cmp    %eax,%esi
  403515:	73 1e                	jae    0x403535
  403517:	80 66 04 00          	andb   $0x0,0x4(%esi)
  40351b:	83 0e ff             	orl    $0xffffffff,(%esi)
  40351e:	83 66 08 00          	andl   $0x0,0x8(%esi)
  403522:	c6 46 05 0a          	movb   $0xa,0x5(%esi)
  403526:	a1 20 93 40 00       	mov    0x409320,%eax
  40352b:	83 c6 24             	add    $0x24,%esi
  40352e:	05 80 04 00 00       	add    $0x480,%eax
  403533:	eb de                	jmp    0x403513
  403535:	8d 45 b8             	lea    -0x48(%ebp),%eax
  403538:	50                   	push   %eax
  403539:	ff 15 58 70 40 00    	call   *0x407058
  40353f:	66 83 7d ea 00       	cmpw   $0x0,-0x16(%ebp)
  403544:	0f 84 d1 00 00 00    	je     0x40361b
  40354a:	8b 45 ec             	mov    -0x14(%ebp),%eax
  40354d:	85 c0                	test   %eax,%eax
  40354f:	0f 84 c6 00 00 00    	je     0x40361b
  403555:	8b 38                	mov    (%eax),%edi
  403557:	8d 58 04             	lea    0x4(%eax),%ebx
  40355a:	8d 04 3b             	lea    (%ebx,%edi,1),%eax
  40355d:	89 45 fc             	mov    %eax,-0x4(%ebp)
  403560:	b8 00 08 00 00       	mov    $0x800,%eax
  403565:	3b f8                	cmp    %eax,%edi
  403567:	7c 02                	jl     0x40356b
  403569:	8b f8                	mov    %eax,%edi
  40356b:	39 3d 20 94 40 00    	cmp    %edi,0x409420
  403571:	7d 56                	jge    0x4035c9
  403573:	be 24 93 40 00       	mov    $0x409324,%esi
  403578:	68 80 04 00 00       	push   $0x480
  40357d:	e8 2b 07 00 00       	call   0x403cad
  403582:	85 c0                	test   %eax,%eax
  403584:	59                   	pop    %ecx
  403585:	74 3c                	je     0x4035c3
  403587:	83 05 20 94 40 00 20 	addl   $0x20,0x409420
  40358e:	89 06                	mov    %eax,(%esi)
  403590:	8d 88 80 04 00 00    	lea    0x480(%eax),%ecx
  403596:	3b c1                	cmp    %ecx,%eax
  403598:	73 1c                	jae    0x4035b6
  40359a:	80 60 04 00          	andb   $0x0,0x4(%eax)
  40359e:	83 08 ff             	orl    $0xffffffff,(%eax)
  4035a1:	83 60 08 00          	andl   $0x0,0x8(%eax)
  4035a5:	c6 40 05 0a          	movb   $0xa,0x5(%eax)
  4035a9:	8b 0e                	mov    (%esi),%ecx
  4035ab:	83 c0 24             	add    $0x24,%eax
  4035ae:	81 c1 80 04 00 00    	add    $0x480,%ecx
  4035b4:	eb e0                	jmp    0x403596
  4035b6:	83 c6 04             	add    $0x4,%esi
  4035b9:	39 3d 20 94 40 00    	cmp    %edi,0x409420
  4035bf:	7c b7                	jl     0x403578
  4035c1:	eb 06                	jmp    0x4035c9
  4035c3:	8b 3d 20 94 40 00    	mov    0x409420,%edi
  4035c9:	33 f6                	xor    %esi,%esi
  4035cb:	85 ff                	test   %edi,%edi
  4035cd:	7e 4c                	jle    0x40361b
  4035cf:	8b 45 fc             	mov    -0x4(%ebp),%eax
  4035d2:	8b 08                	mov    (%eax),%ecx
  4035d4:	83 f9 ff             	cmp    $0xffffffff,%ecx
  4035d7:	74 38                	je     0x403611
  4035d9:	8a 03                	mov    (%ebx),%al
  4035db:	a8 01                	test   $0x1,%al
  4035dd:	74 32                	je     0x403611
  4035df:	a8 08                	test   $0x8,%al
  4035e1:	75 0b                	jne    0x4035ee
  4035e3:	51                   	push   %ecx
  4035e4:	ff 15 54 70 40 00    	call   *0x407054
  4035ea:	85 c0                	test   %eax,%eax
  4035ec:	74 23                	je     0x403611
  4035ee:	8b ce                	mov    %esi,%ecx
  4035f0:	8b c6                	mov    %esi,%eax
  4035f2:	c1 f9 05             	sar    $0x5,%ecx
  4035f5:	83 e0 1f             	and    $0x1f,%eax
  4035f8:	8b 0c 8d 20 93 40 00 	mov    0x409320(,%ecx,4),%ecx
  4035ff:	8d 04 c0             	lea    (%eax,%eax,8),%eax
  403602:	8d 04 81             	lea    (%ecx,%eax,4),%eax
  403605:	8b 4d fc             	mov    -0x4(%ebp),%ecx
  403608:	8b 09                	mov    (%ecx),%ecx
  40360a:	89 08                	mov    %ecx,(%eax)
  40360c:	8a 0b                	mov    (%ebx),%cl
  40360e:	88 48 04             	mov    %cl,0x4(%eax)
  403611:	83 45 fc 04          	addl   $0x4,-0x4(%ebp)
  403615:	46                   	inc    %esi
  403616:	43                   	inc    %ebx
  403617:	3b f7                	cmp    %edi,%esi
  403619:	7c b4                	jl     0x4035cf
  40361b:	33 db                	xor    %ebx,%ebx
  40361d:	8b 0d 20 93 40 00    	mov    0x409320,%ecx
  403623:	8d 04 db             	lea    (%ebx,%ebx,8),%eax
  403626:	83 3c 81 ff          	cmpl   $0xffffffff,(%ecx,%eax,4)
  40362a:	8d 34 81             	lea    (%ecx,%eax,4),%esi
  40362d:	75 4d                	jne    0x40367c
  40362f:	85 db                	test   %ebx,%ebx
  403631:	c6 46 04 81          	movb   $0x81,0x4(%esi)
  403635:	75 05                	jne    0x40363c
  403637:	6a f6                	push   $0xfffffff6
  403639:	58                   	pop    %eax
  40363a:	eb 0a                	jmp    0x403646
  40363c:	8b c3                	mov    %ebx,%eax
  40363e:	48                   	dec    %eax
  40363f:	f7 d8                	neg    %eax
  403641:	1b c0                	sbb    %eax,%eax
  403643:	83 c0 f5             	add    $0xfffffff5,%eax
  403646:	50                   	push   %eax
  403647:	ff 15 50 70 40 00    	call   *0x407050
  40364d:	8b f8                	mov    %eax,%edi
  40364f:	83 ff ff             	cmp    $0xffffffff,%edi
  403652:	74 17                	je     0x40366b
  403654:	57                   	push   %edi
  403655:	ff 15 54 70 40 00    	call   *0x407054
  40365b:	85 c0                	test   %eax,%eax
  40365d:	74 0c                	je     0x40366b
  40365f:	25 ff 00 00 00       	and    $0xff,%eax
  403664:	89 3e                	mov    %edi,(%esi)
  403666:	83 f8 02             	cmp    $0x2,%eax
  403669:	75 06                	jne    0x403671
  40366b:	80 4e 04 40          	orb    $0x40,0x4(%esi)
  40366f:	eb 0f                	jmp    0x403680
  403671:	83 f8 03             	cmp    $0x3,%eax
  403674:	75 0a                	jne    0x403680
  403676:	80 4e 04 08          	orb    $0x8,0x4(%esi)
  40367a:	eb 04                	jmp    0x403680
  40367c:	80 4e 04 80          	orb    $0x80,0x4(%esi)
  403680:	43                   	inc    %ebx
  403681:	83 fb 03             	cmp    $0x3,%ebx
  403684:	7c 97                	jl     0x40361d
  403686:	ff 35 20 94 40 00    	pushl  0x409420
  40368c:	ff 15 4c 70 40 00    	call   *0x40704c
  403692:	5f                   	pop    %edi
  403693:	5e                   	pop    %esi
  403694:	5b                   	pop    %ebx
  403695:	c9                   	leave  
  403696:	c3                   	ret    
  403697:	56                   	push   %esi
  403698:	e8 71 05 00 00       	call   0x403c0e
  40369d:	ff 15 68 70 40 00    	call   *0x407068
  4036a3:	83 f8 ff             	cmp    $0xffffffff,%eax
  4036a6:	a3 0c 84 40 00       	mov    %eax,0x40840c
  4036ab:	74 3a                	je     0x4036e7
  4036ad:	6a 74                	push   $0x74
  4036af:	6a 01                	push   $0x1
  4036b1:	e8 4a 04 00 00       	call   0x403b00
  4036b6:	8b f0                	mov    %eax,%esi
  4036b8:	59                   	pop    %ecx
  4036b9:	85 f6                	test   %esi,%esi
  4036bb:	59                   	pop    %ecx
  4036bc:	74 29                	je     0x4036e7
  4036be:	56                   	push   %esi
  4036bf:	ff 35 0c 84 40 00    	pushl  0x40840c
  4036c5:	ff 15 64 70 40 00    	call   *0x407064
  4036cb:	85 c0                	test   %eax,%eax
  4036cd:	74 18                	je     0x4036e7
  4036cf:	56                   	push   %esi
  4036d0:	e8 16 00 00 00       	call   0x4036eb
  4036d5:	59                   	pop    %ecx
  4036d6:	ff 15 60 70 40 00    	call   *0x407060
  4036dc:	83 4e 04 ff          	orl    $0xffffffff,0x4(%esi)
  4036e0:	6a 01                	push   $0x1
  4036e2:	89 06                	mov    %eax,(%esi)
  4036e4:	58                   	pop    %eax
  4036e5:	5e                   	pop    %esi
  4036e6:	c3                   	ret    
  4036e7:	33 c0                	xor    %eax,%eax
  4036e9:	5e                   	pop    %esi
  4036ea:	c3                   	ret    
  4036eb:	8b 44 24 04          	mov    0x4(%esp),%eax
  4036ef:	c7 40 50 60 83 40 00 	movl   $0x408360,0x50(%eax)
  4036f6:	c7 40 14 01 00 00 00 	movl   $0x1,0x14(%eax)
  4036fd:	c3                   	ret    
  4036fe:	56                   	push   %esi
  4036ff:	57                   	push   %edi
  403700:	ff 15 18 70 40 00    	call   *0x407018
  403706:	ff 35 0c 84 40 00    	pushl  0x40840c
  40370c:	8b f8                	mov    %eax,%edi
  40370e:	ff 15 70 70 40 00    	call   *0x407070
  403714:	8b f0                	mov    %eax,%esi
  403716:	85 f6                	test   %esi,%esi
  403718:	75 3f                	jne    0x403759
  40371a:	6a 74                	push   $0x74
  40371c:	6a 01                	push   $0x1
  40371e:	e8 dd 03 00 00       	call   0x403b00
  403723:	8b f0                	mov    %eax,%esi
  403725:	59                   	pop    %ecx
  403726:	85 f6                	test   %esi,%esi
  403728:	59                   	pop    %ecx
  403729:	74 26                	je     0x403751
  40372b:	56                   	push   %esi
  40372c:	ff 35 0c 84 40 00    	pushl  0x40840c
  403732:	ff 15 64 70 40 00    	call   *0x407064
  403738:	85 c0                	test   %eax,%eax
  40373a:	74 15                	je     0x403751
  40373c:	56                   	push   %esi
  40373d:	e8 a9 ff ff ff       	call   0x4036eb
  403742:	59                   	pop    %ecx
  403743:	ff 15 60 70 40 00    	call   *0x407060
  403749:	83 4e 04 ff          	orl    $0xffffffff,0x4(%esi)
  40374d:	89 06                	mov    %eax,(%esi)
  40374f:	eb 08                	jmp    0x403759
  403751:	6a 10                	push   $0x10
  403753:	e8 58 de ff ff       	call   0x4015b0
  403758:	59                   	pop    %ecx
  403759:	57                   	push   %edi
  40375a:	ff 15 6c 70 40 00    	call   *0x40706c
  403760:	8b c6                	mov    %esi,%eax
  403762:	5f                   	pop    %edi
  403763:	5e                   	pop    %esi
  403764:	c3                   	ret    
  403765:	33 c0                	xor    %eax,%eax
  403767:	6a 00                	push   $0x0
  403769:	39 44 24 08          	cmp    %eax,0x8(%esp)
  40376d:	68 00 10 00 00       	push   $0x1000
  403772:	0f 94 c0             	sete   %al
  403775:	50                   	push   %eax
  403776:	ff 15 78 70 40 00    	call   *0x407078
  40377c:	85 c0                	test   %eax,%eax
  40377e:	a3 00 93 40 00       	mov    %eax,0x409300
  403783:	74 15                	je     0x40379a
  403785:	e8 8b 07 00 00       	call   0x403f15
  40378a:	85 c0                	test   %eax,%eax
  40378c:	75 0f                	jne    0x40379d
  40378e:	ff 35 00 93 40 00    	pushl  0x409300
  403794:	ff 15 74 70 40 00    	call   *0x407074
  40379a:	33 c0                	xor    %eax,%eax
  40379c:	c3                   	ret    
  40379d:	6a 01                	push   $0x1
  40379f:	58                   	pop    %eax
  4037a0:	c3                   	ret    
  4037a1:	cc                   	int3   
  4037a2:	cc                   	int3   
  4037a3:	cc                   	int3   
  4037a4:	55                   	push   %ebp
  4037a5:	8b ec                	mov    %esp,%ebp
  4037a7:	53                   	push   %ebx
  4037a8:	56                   	push   %esi
  4037a9:	57                   	push   %edi
  4037aa:	55                   	push   %ebp
  4037ab:	6a 00                	push   $0x0
  4037ad:	6a 00                	push   $0x0
  4037af:	68 bc 37 40 00       	push   $0x4037bc
  4037b4:	ff 75 08             	pushl  0x8(%ebp)
  4037b7:	e8 30 2e 00 00       	call   0x4065ec
  4037bc:	5d                   	pop    %ebp
  4037bd:	5f                   	pop    %edi
  4037be:	5e                   	pop    %esi
  4037bf:	5b                   	pop    %ebx
  4037c0:	8b e5                	mov    %ebp,%esp
  4037c2:	5d                   	pop    %ebp
  4037c3:	c3                   	ret    
  4037c4:	8b 4c 24 04          	mov    0x4(%esp),%ecx
  4037c8:	f7 41 04 06 00 00 00 	testl  $0x6,0x4(%ecx)
  4037cf:	b8 01 00 00 00       	mov    $0x1,%eax
  4037d4:	74 0f                	je     0x4037e5
  4037d6:	8b 44 24 08          	mov    0x8(%esp),%eax
  4037da:	8b 54 24 10          	mov    0x10(%esp),%edx
  4037de:	89 02                	mov    %eax,(%edx)
  4037e0:	b8 03 00 00 00       	mov    $0x3,%eax
  4037e5:	c3                   	ret    
  4037e6:	53                   	push   %ebx
  4037e7:	56                   	push   %esi
  4037e8:	57                   	push   %edi
  4037e9:	8b 44 24 10          	mov    0x10(%esp),%eax
  4037ed:	50                   	push   %eax
  4037ee:	6a fe                	push   $0xfffffffe
  4037f0:	68 c4 37 40 00       	push   $0x4037c4
  4037f5:	64 ff 35 00 00 00 00 	pushl  %fs:0x0
  4037fc:	64 89 25 00 00 00 00 	mov    %esp,%fs:0x0
  403803:	8b 44 24 20          	mov    0x20(%esp),%eax
  403807:	8b 58 08             	mov    0x8(%eax),%ebx
  40380a:	8b 70 0c             	mov    0xc(%eax),%esi
  40380d:	83 fe ff             	cmp    $0xffffffff,%esi
  403810:	74 2e                	je     0x403840
  403812:	3b 74 24 24          	cmp    0x24(%esp),%esi
  403816:	74 28                	je     0x403840
  403818:	8d 34 76             	lea    (%esi,%esi,2),%esi
  40381b:	8b 0c b3             	mov    (%ebx,%esi,4),%ecx
  40381e:	89 4c 24 08          	mov    %ecx,0x8(%esp)
  403822:	89 48 0c             	mov    %ecx,0xc(%eax)
  403825:	83 7c b3 04 00       	cmpl   $0x0,0x4(%ebx,%esi,4)
  40382a:	75 12                	jne    0x40383e
  40382c:	68 01 01 00 00       	push   $0x101
  403831:	8b 44 b3 08          	mov    0x8(%ebx,%esi,4),%eax
  403835:	e8 40 00 00 00       	call   0x40387a
  40383a:	ff 54 b3 08          	call   *0x8(%ebx,%esi,4)
  40383e:	eb c3                	jmp    0x403803
  403840:	64 8f 05 00 00 00 00 	popl   %fs:0x0
  403847:	83 c4 0c             	add    $0xc,%esp
  40384a:	5f                   	pop    %edi
  40384b:	5e                   	pop    %esi
  40384c:	5b                   	pop    %ebx
  40384d:	c3                   	ret    
  40384e:	33 c0                	xor    %eax,%eax
  403850:	64 8b 0d 00 00 00 00 	mov    %fs:0x0,%ecx
  403857:	81 79 04 c4 37 40 00 	cmpl   $0x4037c4,0x4(%ecx)
  40385e:	75 10                	jne    0x403870
  403860:	8b 51 0c             	mov    0xc(%ecx),%edx
  403863:	8b 52 0c             	mov    0xc(%edx),%edx
  403866:	39 51 08             	cmp    %edx,0x8(%ecx)
  403869:	75 05                	jne    0x403870
  40386b:	b8 01 00 00 00       	mov    $0x1,%eax
  403870:	c3                   	ret    
  403871:	53                   	push   %ebx
  403872:	51                   	push   %ecx
  403873:	bb 14 84 40 00       	mov    $0x408414,%ebx
  403878:	eb 0a                	jmp    0x403884
  40387a:	53                   	push   %ebx
  40387b:	51                   	push   %ecx
  40387c:	bb 14 84 40 00       	mov    $0x408414,%ebx
  403881:	8b 4d 08             	mov    0x8(%ebp),%ecx
  403884:	89 4b 08             	mov    %ecx,0x8(%ebx)
  403887:	89 43 04             	mov    %eax,0x4(%ebx)
  40388a:	89 6b 0c             	mov    %ebp,0xc(%ebx)
  40388d:	59                   	pop    %ecx
  40388e:	5b                   	pop    %ebx
  40388f:	c2 04 00             	ret    $0x4
  403892:	cc                   	int3   
  403893:	cc                   	int3   
  403894:	56                   	push   %esi
  403895:	43                   	inc    %ebx
  403896:	32 30                	xor    (%eax),%dh
  403898:	58                   	pop    %eax
  403899:	43                   	inc    %ebx
  40389a:	30 30                	xor    %dh,(%eax)
  40389c:	55                   	push   %ebp
  40389d:	8b ec                	mov    %esp,%ebp
  40389f:	83 ec 08             	sub    $0x8,%esp
  4038a2:	53                   	push   %ebx
  4038a3:	56                   	push   %esi
  4038a4:	57                   	push   %edi
  4038a5:	55                   	push   %ebp
  4038a6:	fc                   	cld    
  4038a7:	8b 5d 0c             	mov    0xc(%ebp),%ebx
  4038aa:	8b 45 08             	mov    0x8(%ebp),%eax
  4038ad:	f7 40 04 06 00 00 00 	testl  $0x6,0x4(%eax)
  4038b4:	0f 85 82 00 00 00    	jne    0x40393c
  4038ba:	89 45 f8             	mov    %eax,-0x8(%ebp)
  4038bd:	8b 45 10             	mov    0x10(%ebp),%eax
  4038c0:	89 45 fc             	mov    %eax,-0x4(%ebp)
  4038c3:	8d 45 f8             	lea    -0x8(%ebp),%eax
  4038c6:	89 43 fc             	mov    %eax,-0x4(%ebx)
  4038c9:	8b 73 0c             	mov    0xc(%ebx),%esi
  4038cc:	8b 7b 08             	mov    0x8(%ebx),%edi
  4038cf:	83 fe ff             	cmp    $0xffffffff,%esi
  4038d2:	74 61                	je     0x403935
  4038d4:	8d 0c 76             	lea    (%esi,%esi,2),%ecx
  4038d7:	83 7c 8f 04 00       	cmpl   $0x0,0x4(%edi,%ecx,4)
  4038dc:	74 45                	je     0x403923
  4038de:	56                   	push   %esi
  4038df:	55                   	push   %ebp
  4038e0:	8d 6b 10             	lea    0x10(%ebx),%ebp
  4038e3:	ff 54 8f 04          	call   *0x4(%edi,%ecx,4)
  4038e7:	5d                   	pop    %ebp
  4038e8:	5e                   	pop    %esi
  4038e9:	8b 5d 0c             	mov    0xc(%ebp),%ebx
  4038ec:	0b c0                	or     %eax,%eax
  4038ee:	74 33                	je     0x403923
  4038f0:	78 3c                	js     0x40392e
  4038f2:	8b 7b 08             	mov    0x8(%ebx),%edi
  4038f5:	53                   	push   %ebx
  4038f6:	e8 a9 fe ff ff       	call   0x4037a4
  4038fb:	83 c4 04             	add    $0x4,%esp
  4038fe:	8d 6b 10             	lea    0x10(%ebx),%ebp
  403901:	56                   	push   %esi
  403902:	53                   	push   %ebx
  403903:	e8 de fe ff ff       	call   0x4037e6
  403908:	83 c4 08             	add    $0x8,%esp
  40390b:	8d 0c 76             	lea    (%esi,%esi,2),%ecx
  40390e:	6a 01                	push   $0x1
  403910:	8b 44 8f 08          	mov    0x8(%edi,%ecx,4),%eax
  403914:	e8 61 ff ff ff       	call   0x40387a
  403919:	8b 04 8f             	mov    (%edi,%ecx,4),%eax
  40391c:	89 43 0c             	mov    %eax,0xc(%ebx)
  40391f:	ff 54 8f 08          	call   *0x8(%edi,%ecx,4)
  403923:	8b 7b 08             	mov    0x8(%ebx),%edi
  403926:	8d 0c 76             	lea    (%esi,%esi,2),%ecx
  403929:	8b 34 8f             	mov    (%edi,%ecx,4),%esi
  40392c:	eb a1                	jmp    0x4038cf
  40392e:	b8 00 00 00 00       	mov    $0x0,%eax
  403933:	eb 1c                	jmp    0x403951
  403935:	b8 01 00 00 00       	mov    $0x1,%eax
  40393a:	eb 15                	jmp    0x403951
  40393c:	55                   	push   %ebp
  40393d:	8d 6b 10             	lea    0x10(%ebx),%ebp
  403940:	6a ff                	push   $0xffffffff
  403942:	53                   	push   %ebx
  403943:	e8 9e fe ff ff       	call   0x4037e6
  403948:	83 c4 08             	add    $0x8,%esp
  40394b:	5d                   	pop    %ebp
  40394c:	b8 01 00 00 00       	mov    $0x1,%eax
  403951:	5d                   	pop    %ebp
  403952:	5f                   	pop    %edi
  403953:	5e                   	pop    %esi
  403954:	5b                   	pop    %ebx
  403955:	8b e5                	mov    %ebp,%esp
  403957:	5d                   	pop    %ebp
  403958:	c3                   	ret    
  403959:	55                   	push   %ebp
  40395a:	8b 4c 24 08          	mov    0x8(%esp),%ecx
  40395e:	8b 29                	mov    (%ecx),%ebp
  403960:	8b 41 1c             	mov    0x1c(%ecx),%eax
  403963:	50                   	push   %eax
  403964:	8b 41 18             	mov    0x18(%ecx),%eax
  403967:	50                   	push   %eax
  403968:	e8 79 fe ff ff       	call   0x4037e6
  40396d:	83 c4 08             	add    $0x8,%esp
  403970:	5d                   	pop    %ebp
  403971:	c2 04 00             	ret    $0x4
  403974:	a1 68 8d 40 00       	mov    0x408d68,%eax
  403979:	83 f8 01             	cmp    $0x1,%eax
  40397c:	74 0d                	je     0x40398b
  40397e:	85 c0                	test   %eax,%eax
  403980:	75 2a                	jne    0x4039ac
  403982:	83 3d d4 80 40 00 01 	cmpl   $0x1,0x4080d4
  403989:	75 21                	jne    0x4039ac
  40398b:	68 fc 00 00 00       	push   $0xfc
  403990:	e8 18 00 00 00       	call   0x4039ad
  403995:	a1 c4 8e 40 00       	mov    0x408ec4,%eax
  40399a:	59                   	pop    %ecx
  40399b:	85 c0                	test   %eax,%eax
  40399d:	74 02                	je     0x4039a1
  40399f:	ff d0                	call   *%eax
  4039a1:	68 ff 00 00 00       	push   $0xff
  4039a6:	e8 02 00 00 00       	call   0x4039ad
  4039ab:	59                   	pop    %ecx
  4039ac:	c3                   	ret    
  4039ad:	55                   	push   %ebp
  4039ae:	8b ec                	mov    %esp,%ebp
  4039b0:	81 ec a4 01 00 00    	sub    $0x1a4,%esp
  4039b6:	8b 55 08             	mov    0x8(%ebp),%edx
  4039b9:	33 c9                	xor    %ecx,%ecx
  4039bb:	b8 28 84 40 00       	mov    $0x408428,%eax
  4039c0:	3b 10                	cmp    (%eax),%edx
  4039c2:	74 0b                	je     0x4039cf
  4039c4:	83 c0 08             	add    $0x8,%eax
  4039c7:	41                   	inc    %ecx
  4039c8:	3d b8 84 40 00       	cmp    $0x4084b8,%eax
  4039cd:	7c f1                	jl     0x4039c0
  4039cf:	56                   	push   %esi
  4039d0:	8b f1                	mov    %ecx,%esi
  4039d2:	c1 e6 03             	shl    $0x3,%esi
  4039d5:	3b 96 28 84 40 00    	cmp    0x408428(%esi),%edx
  4039db:	0f 85 1c 01 00 00    	jne    0x403afd
  4039e1:	a1 68 8d 40 00       	mov    0x408d68,%eax
  4039e6:	83 f8 01             	cmp    $0x1,%eax
  4039e9:	0f 84 e8 00 00 00    	je     0x403ad7
  4039ef:	85 c0                	test   %eax,%eax
  4039f1:	75 0d                	jne    0x403a00
  4039f3:	83 3d d4 80 40 00 01 	cmpl   $0x1,0x4080d4
  4039fa:	0f 84 d7 00 00 00    	je     0x403ad7
  403a00:	81 fa fc 00 00 00    	cmp    $0xfc,%edx
  403a06:	0f 84 f1 00 00 00    	je     0x403afd
  403a0c:	8d 85 5c fe ff ff    	lea    -0x1a4(%ebp),%eax
  403a12:	68 04 01 00 00       	push   $0x104
  403a17:	50                   	push   %eax
  403a18:	6a 00                	push   $0x0
  403a1a:	ff 15 34 70 40 00    	call   *0x407034
  403a20:	85 c0                	test   %eax,%eax
  403a22:	75 13                	jne    0x403a37
  403a24:	8d 85 5c fe ff ff    	lea    -0x1a4(%ebp),%eax
  403a2a:	68 38 74 40 00       	push   $0x407438
  403a2f:	50                   	push   %eax
  403a30:	e8 0b 17 00 00       	call   0x405140
  403a35:	59                   	pop    %ecx
  403a36:	59                   	pop    %ecx
  403a37:	8d 85 5c fe ff ff    	lea    -0x1a4(%ebp),%eax
  403a3d:	57                   	push   %edi
  403a3e:	50                   	push   %eax
  403a3f:	8d bd 5c fe ff ff    	lea    -0x1a4(%ebp),%edi
  403a45:	e8 46 f3 ff ff       	call   0x402d90
  403a4a:	40                   	inc    %eax
  403a4b:	59                   	pop    %ecx
  403a4c:	83 f8 3c             	cmp    $0x3c,%eax
  403a4f:	76 29                	jbe    0x403a7a
  403a51:	8d 85 5c fe ff ff    	lea    -0x1a4(%ebp),%eax
  403a57:	50                   	push   %eax
  403a58:	e8 33 f3 ff ff       	call   0x402d90
  403a5d:	8b f8                	mov    %eax,%edi
  403a5f:	8d 85 5c fe ff ff    	lea    -0x1a4(%ebp),%eax
  403a65:	83 e8 3b             	sub    $0x3b,%eax
  403a68:	6a 03                	push   $0x3
  403a6a:	03 f8                	add    %eax,%edi
  403a6c:	68 34 74 40 00       	push   $0x407434
  403a71:	57                   	push   %edi
  403a72:	e8 39 1c 00 00       	call   0x4056b0
  403a77:	83 c4 10             	add    $0x10,%esp
  403a7a:	8d 85 60 ff ff ff    	lea    -0xa0(%ebp),%eax
  403a80:	68 18 74 40 00       	push   $0x407418
  403a85:	50                   	push   %eax
  403a86:	e8 b5 16 00 00       	call   0x405140
  403a8b:	8d 85 60 ff ff ff    	lea    -0xa0(%ebp),%eax
  403a91:	57                   	push   %edi
  403a92:	50                   	push   %eax
  403a93:	e8 b8 16 00 00       	call   0x405150
  403a98:	8d 85 60 ff ff ff    	lea    -0xa0(%ebp),%eax
  403a9e:	68 14 74 40 00       	push   $0x407414
  403aa3:	50                   	push   %eax
  403aa4:	e8 a7 16 00 00       	call   0x405150
  403aa9:	ff b6 2c 84 40 00    	pushl  0x40842c(%esi)
  403aaf:	8d 85 60 ff ff ff    	lea    -0xa0(%ebp),%eax
  403ab5:	50                   	push   %eax
  403ab6:	e8 95 16 00 00       	call   0x405150
  403abb:	68 10 20 01 00       	push   $0x12010
  403ac0:	8d 85 60 ff ff ff    	lea    -0xa0(%ebp),%eax
  403ac6:	68 ec 73 40 00       	push   $0x4073ec
  403acb:	50                   	push   %eax
  403acc:	e8 53 1b 00 00       	call   0x405624
  403ad1:	83 c4 2c             	add    $0x2c,%esp
  403ad4:	5f                   	pop    %edi
  403ad5:	eb 26                	jmp    0x403afd
  403ad7:	8d 45 08             	lea    0x8(%ebp),%eax
  403ada:	8d b6 2c 84 40 00    	lea    0x40842c(%esi),%esi
  403ae0:	6a 00                	push   $0x0
  403ae2:	50                   	push   %eax
  403ae3:	ff 36                	pushl  (%esi)
  403ae5:	e8 a6 f2 ff ff       	call   0x402d90
  403aea:	59                   	pop    %ecx
  403aeb:	50                   	push   %eax
  403aec:	ff 36                	pushl  (%esi)
  403aee:	6a f4                	push   $0xfffffff4
  403af0:	ff 15 50 70 40 00    	call   *0x407050
  403af6:	50                   	push   %eax
  403af7:	ff 15 84 70 40 00    	call   *0x407084
  403afd:	5e                   	pop    %esi
  403afe:	c9                   	leave  
  403aff:	c3                   	ret    
  403b00:	53                   	push   %ebx
  403b01:	56                   	push   %esi
  403b02:	8b 74 24 0c          	mov    0xc(%esp),%esi
  403b06:	57                   	push   %edi
  403b07:	0f af 74 24 14       	imul   0x14(%esp),%esi
  403b0c:	83 fe e0             	cmp    $0xffffffe0,%esi
  403b0f:	8b de                	mov    %esi,%ebx
  403b11:	77 0d                	ja     0x403b20
  403b13:	85 f6                	test   %esi,%esi
  403b15:	75 03                	jne    0x403b1a
  403b17:	6a 01                	push   $0x1
  403b19:	5e                   	pop    %esi
  403b1a:	83 c6 0f             	add    $0xf,%esi
  403b1d:	83 e6 f0             	and    $0xfffffff0,%esi
  403b20:	33 ff                	xor    %edi,%edi
  403b22:	83 fe e0             	cmp    $0xffffffe0,%esi
  403b25:	77 3a                	ja     0x403b61
  403b27:	3b 1d a0 87 40 00    	cmp    0x4087a0,%ebx
  403b2d:	77 1d                	ja     0x403b4c
  403b2f:	6a 09                	push   $0x9
  403b31:	e8 01 01 00 00       	call   0x403c37
  403b36:	53                   	push   %ebx
  403b37:	e8 6d 07 00 00       	call   0x4042a9
  403b3c:	6a 09                	push   $0x9
  403b3e:	8b f8                	mov    %eax,%edi
  403b40:	e8 53 01 00 00       	call   0x403c98
  403b45:	83 c4 0c             	add    $0xc,%esp
  403b48:	85 ff                	test   %edi,%edi
  403b4a:	75 2b                	jne    0x403b77
  403b4c:	56                   	push   %esi
  403b4d:	6a 08                	push   $0x8
  403b4f:	ff 35 00 93 40 00    	pushl  0x409300
  403b55:	ff 15 88 70 40 00    	call   *0x407088
  403b5b:	8b f8                	mov    %eax,%edi
  403b5d:	85 ff                	test   %edi,%edi
  403b5f:	75 22                	jne    0x403b83
  403b61:	83 3d 40 8f 40 00 00 	cmpl   $0x0,0x408f40
  403b68:	74 19                	je     0x403b83
  403b6a:	56                   	push   %esi
  403b6b:	e8 3e 1c 00 00       	call   0x4057ae
  403b70:	85 c0                	test   %eax,%eax
  403b72:	59                   	pop    %ecx
  403b73:	74 14                	je     0x403b89
  403b75:	eb a9                	jmp    0x403b20
  403b77:	53                   	push   %ebx
  403b78:	6a 00                	push   $0x0
  403b7a:	57                   	push   %edi
  403b7b:	e8 70 d8 ff ff       	call   0x4013f0
  403b80:	83 c4 0c             	add    $0xc,%esp
  403b83:	8b c7                	mov    %edi,%eax
  403b85:	5f                   	pop    %edi
  403b86:	5e                   	pop    %esi
  403b87:	5b                   	pop    %ebx
  403b88:	c3                   	ret    
  403b89:	33 c0                	xor    %eax,%eax
  403b8b:	eb f8                	jmp    0x403b85
  403b8d:	53                   	push   %ebx
  403b8e:	57                   	push   %edi
  403b8f:	6a 02                	push   $0x2
  403b91:	33 db                	xor    %ebx,%ebx
  403b93:	e8 9f 00 00 00       	call   0x403c37
  403b98:	59                   	pop    %ecx
  403b99:	6a 03                	push   $0x3
  403b9b:	5f                   	pop    %edi
  403b9c:	39 3d 40 a4 40 00    	cmp    %edi,0x40a440
  403ba2:	7e 5d                	jle    0x403c01
  403ba4:	56                   	push   %esi
  403ba5:	a1 38 94 40 00       	mov    0x409438,%eax
  403baa:	8b f7                	mov    %edi,%esi
  403bac:	c1 e6 02             	shl    $0x2,%esi
  403baf:	8b 04 06             	mov    (%esi,%eax,1),%eax
  403bb2:	85 c0                	test   %eax,%eax
  403bb4:	74 41                	je     0x403bf7
  403bb6:	f6 40 0c 83          	testb  $0x83,0xc(%eax)
  403bba:	74 0d                	je     0x403bc9
  403bbc:	50                   	push   %eax
  403bbd:	e8 3a d6 ff ff       	call   0x4011fc
  403bc2:	83 f8 ff             	cmp    $0xffffffff,%eax
  403bc5:	59                   	pop    %ecx
  403bc6:	74 01                	je     0x403bc9
  403bc8:	43                   	inc    %ebx
  403bc9:	83 ff 14             	cmp    $0x14,%edi
  403bcc:	7c 29                	jl     0x403bf7
  403bce:	a1 38 94 40 00       	mov    0x409438,%eax
  403bd3:	8b 04 06             	mov    (%esi,%eax,1),%eax
  403bd6:	83 c0 20             	add    $0x20,%eax
  403bd9:	50                   	push   %eax
  403bda:	ff 15 5c 70 40 00    	call   *0x40705c
  403be0:	a1 38 94 40 00       	mov    0x409438,%eax
  403be5:	ff 34 06             	pushl  (%esi,%eax,1)
  403be8:	e8 2d e4 ff ff       	call   0x40201a
  403bed:	a1 38 94 40 00       	mov    0x409438,%eax
  403bf2:	59                   	pop    %ecx
  403bf3:	83 24 06 00          	andl   $0x0,(%esi,%eax,1)
  403bf7:	47                   	inc    %edi
  403bf8:	3b 3d 40 a4 40 00    	cmp    0x40a440,%edi
  403bfe:	7c a5                	jl     0x403ba5
  403c00:	5e                   	pop    %esi
  403c01:	6a 02                	push   $0x2
  403c03:	e8 90 00 00 00       	call   0x403c98
  403c08:	59                   	pop    %ecx
  403c09:	8b c3                	mov    %ebx,%eax
  403c0b:	5f                   	pop    %edi
  403c0c:	5b                   	pop    %ebx
  403c0d:	c3                   	ret    
  403c0e:	56                   	push   %esi
  403c0f:	8b 35 24 70 40 00    	mov    0x407024,%esi
  403c15:	ff 35 fc 84 40 00    	pushl  0x4084fc
  403c1b:	ff d6                	call   *%esi
  403c1d:	ff 35 ec 84 40 00    	pushl  0x4084ec
  403c23:	ff d6                	call   *%esi
  403c25:	ff 35 dc 84 40 00    	pushl  0x4084dc
  403c2b:	ff d6                	call   *%esi
  403c2d:	ff 35 bc 84 40 00    	pushl  0x4084bc
  403c33:	ff d6                	call   *%esi
  403c35:	5e                   	pop    %esi
  403c36:	c3                   	ret    
  403c37:	55                   	push   %ebp
  403c38:	8b ec                	mov    %esp,%ebp
  403c3a:	8b 45 08             	mov    0x8(%ebp),%eax
  403c3d:	56                   	push   %esi
  403c3e:	83 3c 85 b8 84 40 00 	cmpl   $0x0,0x4084b8(,%eax,4)
  403c45:	00 
  403c46:	8d 34 85 b8 84 40 00 	lea    0x4084b8(,%eax,4),%esi
  403c4d:	75 3e                	jne    0x403c8d
  403c4f:	57                   	push   %edi
  403c50:	6a 18                	push   $0x18
  403c52:	e8 56 00 00 00       	call   0x403cad
  403c57:	8b f8                	mov    %eax,%edi
  403c59:	59                   	pop    %ecx
  403c5a:	85 ff                	test   %edi,%edi
  403c5c:	75 08                	jne    0x403c66
  403c5e:	6a 11                	push   $0x11
  403c60:	e8 4b d9 ff ff       	call   0x4015b0
  403c65:	59                   	pop    %ecx
  403c66:	6a 11                	push   $0x11
  403c68:	e8 ca ff ff ff       	call   0x403c37
  403c6d:	83 3e 00             	cmpl   $0x0,(%esi)
  403c70:	59                   	pop    %ecx
  403c71:	57                   	push   %edi
  403c72:	75 0a                	jne    0x403c7e
  403c74:	ff 15 24 70 40 00    	call   *0x407024
  403c7a:	89 3e                	mov    %edi,(%esi)
  403c7c:	eb 06                	jmp    0x403c84
  403c7e:	e8 97 e3 ff ff       	call   0x40201a
  403c83:	59                   	pop    %ecx
  403c84:	6a 11                	push   $0x11
  403c86:	e8 0d 00 00 00       	call   0x403c98
  403c8b:	59                   	pop    %ecx
  403c8c:	5f                   	pop    %edi
  403c8d:	ff 36                	pushl  (%esi)
  403c8f:	ff 15 0c 70 40 00    	call   *0x40700c
  403c95:	5e                   	pop    %esi
  403c96:	5d                   	pop    %ebp
  403c97:	c3                   	ret    
  403c98:	55                   	push   %ebp
  403c99:	8b ec                	mov    %esp,%ebp
  403c9b:	8b 45 08             	mov    0x8(%ebp),%eax
  403c9e:	ff 34 85 b8 84 40 00 	pushl  0x4084b8(,%eax,4)
  403ca5:	ff 15 10 70 40 00    	call   *0x407010
  403cab:	5d                   	pop    %ebp
  403cac:	c3                   	ret    
  403cad:	ff 35 40 8f 40 00    	pushl  0x408f40
  403cb3:	ff 74 24 08          	pushl  0x8(%esp)
  403cb7:	e8 03 00 00 00       	call   0x403cbf
  403cbc:	59                   	pop    %ecx
  403cbd:	59                   	pop    %ecx
  403cbe:	c3                   	ret    
  403cbf:	83 7c 24 04 e0       	cmpl   $0xffffffe0,0x4(%esp)
  403cc4:	77 22                	ja     0x403ce8
  403cc6:	ff 74 24 04          	pushl  0x4(%esp)
  403cca:	e8 1c 00 00 00       	call   0x403ceb
  403ccf:	85 c0                	test   %eax,%eax
  403cd1:	59                   	pop    %ecx
  403cd2:	75 16                	jne    0x403cea
  403cd4:	39 44 24 08          	cmp    %eax,0x8(%esp)
  403cd8:	74 10                	je     0x403cea
  403cda:	ff 74 24 04          	pushl  0x4(%esp)
  403cde:	e8 cb 1a 00 00       	call   0x4057ae
  403ce3:	85 c0                	test   %eax,%eax
  403ce5:	59                   	pop    %ecx
  403ce6:	75 de                	jne    0x403cc6
  403ce8:	33 c0                	xor    %eax,%eax
  403cea:	c3                   	ret    
  403ceb:	56                   	push   %esi
  403cec:	8b 74 24 08          	mov    0x8(%esp),%esi
  403cf0:	3b 35 a0 87 40 00    	cmp    0x4087a0,%esi
  403cf6:	57                   	push   %edi
  403cf7:	77 21                	ja     0x403d1a
  403cf9:	6a 09                	push   $0x9
  403cfb:	e8 37 ff ff ff       	call   0x403c37
  403d00:	56                   	push   %esi
  403d01:	e8 a3 05 00 00       	call   0x4042a9
  403d06:	6a 09                	push   $0x9
  403d08:	8b f8                	mov    %eax,%edi
  403d0a:	e8 89 ff ff ff       	call   0x403c98
  403d0f:	83 c4 0c             	add    $0xc,%esp
  403d12:	85 ff                	test   %edi,%edi
  403d14:	74 04                	je     0x403d1a
  403d16:	8b c7                	mov    %edi,%eax
  403d18:	eb 1c                	jmp    0x403d36
  403d1a:	85 f6                	test   %esi,%esi
  403d1c:	75 03                	jne    0x403d21
  403d1e:	6a 01                	push   $0x1
  403d20:	5e                   	pop    %esi
  403d21:	83 c6 0f             	add    $0xf,%esi
  403d24:	83 e6 f0             	and    $0xfffffff0,%esi
  403d27:	56                   	push   %esi
  403d28:	6a 00                	push   $0x0
  403d2a:	ff 35 00 93 40 00    	pushl  0x409300
  403d30:	ff 15 88 70 40 00    	call   *0x407088
  403d36:	5f                   	pop    %edi
  403d37:	5e                   	pop    %esi
  403d38:	c3                   	ret    
  403d39:	8b 44 24 04          	mov    0x4(%esp),%eax
  403d3d:	3b 05 20 94 40 00    	cmp    0x409420,%eax
  403d43:	72 03                	jb     0x403d48
  403d45:	33 c0                	xor    %eax,%eax
  403d47:	c3                   	ret    
  403d48:	8b c8                	mov    %eax,%ecx
  403d4a:	83 e0 1f             	and    $0x1f,%eax
  403d4d:	c1 f9 05             	sar    $0x5,%ecx
  403d50:	8d 04 c0             	lea    (%eax,%eax,8),%eax
  403d53:	8b 0c 8d 20 93 40 00 	mov    0x409320(,%ecx,4),%ecx
  403d5a:	8a 44 81 04          	mov    0x4(%ecx,%eax,4),%al
  403d5e:	83 e0 40             	and    $0x40,%eax
  403d61:	c3                   	ret    
  403d62:	55                   	push   %ebp
  403d63:	8b ec                	mov    %esp,%ebp
  403d65:	53                   	push   %ebx
  403d66:	56                   	push   %esi
  403d67:	be bc 90 40 00       	mov    $0x4090bc,%esi
  403d6c:	57                   	push   %edi
  403d6d:	56                   	push   %esi
  403d6e:	ff 15 90 70 40 00    	call   *0x407090
  403d74:	8b 3d 8c 70 40 00    	mov    0x40708c,%edi
  403d7a:	33 db                	xor    %ebx,%ebx
  403d7c:	39 1d b8 90 40 00    	cmp    %ebx,0x4090b8
  403d82:	74 0e                	je     0x403d92
  403d84:	56                   	push   %esi
  403d85:	ff d7                	call   *%edi
  403d87:	6a 13                	push   $0x13
  403d89:	e8 a9 fe ff ff       	call   0x403c37
  403d8e:	59                   	pop    %ecx
  403d8f:	6a 01                	push   $0x1
  403d91:	5b                   	pop    %ebx
  403d92:	ff 75 0c             	pushl  0xc(%ebp)
  403d95:	ff 75 08             	pushl  0x8(%ebp)
  403d98:	e8 1e 00 00 00       	call   0x403dbb
  403d9d:	59                   	pop    %ecx
  403d9e:	89 45 0c             	mov    %eax,0xc(%ebp)
  403da1:	85 db                	test   %ebx,%ebx
  403da3:	59                   	pop    %ecx
  403da4:	74 0a                	je     0x403db0
  403da6:	6a 13                	push   $0x13
  403da8:	e8 eb fe ff ff       	call   0x403c98
  403dad:	59                   	pop    %ecx
  403dae:	eb 03                	jmp    0x403db3
  403db0:	56                   	push   %esi
  403db1:	ff d7                	call   *%edi
  403db3:	8b 45 0c             	mov    0xc(%ebp),%eax
  403db6:	5f                   	pop    %edi
  403db7:	5e                   	pop    %esi
  403db8:	5b                   	pop    %ebx
  403db9:	5d                   	pop    %ebp
  403dba:	c3                   	ret    
  403dbb:	55                   	push   %ebp
  403dbc:	8b ec                	mov    %esp,%ebp
  403dbe:	8b 45 08             	mov    0x8(%ebp),%eax
  403dc1:	85 c0                	test   %eax,%eax
  403dc3:	75 02                	jne    0x403dc7
  403dc5:	5d                   	pop    %ebp
  403dc6:	c3                   	ret    
  403dc7:	83 3d 58 8f 40 00 00 	cmpl   $0x0,0x408f58
  403dce:	75 12                	jne    0x403de2
  403dd0:	66 8b 4d 0c          	mov    0xc(%ebp),%cx
  403dd4:	66 81 f9 ff 00       	cmp    $0xff,%cx
  403dd9:	77 39                	ja     0x403e14
  403ddb:	6a 01                	push   $0x1
  403ddd:	88 08                	mov    %cl,(%eax)
  403ddf:	58                   	pop    %eax
  403de0:	5d                   	pop    %ebp
  403de1:	c3                   	ret    
  403de2:	8d 4d 08             	lea    0x8(%ebp),%ecx
  403de5:	83 65 08 00          	andl   $0x0,0x8(%ebp)
  403de9:	51                   	push   %ecx
  403dea:	6a 00                	push   $0x0
  403dec:	ff 35 1c 8b 40 00    	pushl  0x408b1c
  403df2:	50                   	push   %eax
  403df3:	8d 45 0c             	lea    0xc(%ebp),%eax
  403df6:	6a 01                	push   $0x1
  403df8:	50                   	push   %eax
  403df9:	68 20 02 00 00       	push   $0x220
  403dfe:	ff 35 68 8f 40 00    	pushl  0x408f68
  403e04:	ff 15 40 70 40 00    	call   *0x407040
  403e0a:	85 c0                	test   %eax,%eax
  403e0c:	74 06                	je     0x403e14
  403e0e:	83 7d 08 00          	cmpl   $0x0,0x8(%ebp)
  403e12:	74 0e                	je     0x403e22
  403e14:	e8 b8 09 00 00       	call   0x4047d1
  403e19:	c7 00 2a 00 00 00    	movl   $0x2a,(%eax)
  403e1f:	83 c8 ff             	or     $0xffffffff,%eax
  403e22:	5d                   	pop    %ebp
  403e23:	c3                   	ret    
  403e24:	cc                   	int3   
  403e25:	cc                   	int3   
  403e26:	cc                   	int3   
  403e27:	cc                   	int3   
  403e28:	cc                   	int3   
  403e29:	cc                   	int3   
  403e2a:	cc                   	int3   
  403e2b:	cc                   	int3   
  403e2c:	cc                   	int3   
  403e2d:	cc                   	int3   
  403e2e:	cc                   	int3   
  403e2f:	cc                   	int3   
  403e30:	53                   	push   %ebx
  403e31:	56                   	push   %esi
  403e32:	8b 44 24 18          	mov    0x18(%esp),%eax
  403e36:	0b c0                	or     %eax,%eax
  403e38:	75 18                	jne    0x403e52
  403e3a:	8b 4c 24 14          	mov    0x14(%esp),%ecx
  403e3e:	8b 44 24 10          	mov    0x10(%esp),%eax
  403e42:	33 d2                	xor    %edx,%edx
  403e44:	f7 f1                	div    %ecx
  403e46:	8b d8                	mov    %eax,%ebx
  403e48:	8b 44 24 0c          	mov    0xc(%esp),%eax
  403e4c:	f7 f1                	div    %ecx
  403e4e:	8b d3                	mov    %ebx,%edx
  403e50:	eb 41                	jmp    0x403e93
  403e52:	8b c8                	mov    %eax,%ecx
  403e54:	8b 5c 24 14          	mov    0x14(%esp),%ebx
  403e58:	8b 54 24 10          	mov    0x10(%esp),%edx
  403e5c:	8b 44 24 0c          	mov    0xc(%esp),%eax
  403e60:	d1 e9                	shr    %ecx
  403e62:	d1 db                	rcr    %ebx
  403e64:	d1 ea                	shr    %edx
  403e66:	d1 d8                	rcr    %eax
  403e68:	0b c9                	or     %ecx,%ecx
  403e6a:	75 f4                	jne    0x403e60
  403e6c:	f7 f3                	div    %ebx
  403e6e:	8b f0                	mov    %eax,%esi
  403e70:	f7 64 24 18          	mull   0x18(%esp)
  403e74:	8b c8                	mov    %eax,%ecx
  403e76:	8b 44 24 14          	mov    0x14(%esp),%eax
  403e7a:	f7 e6                	mul    %esi
  403e7c:	03 d1                	add    %ecx,%edx
  403e7e:	72 0e                	jb     0x403e8e
  403e80:	3b 54 24 10          	cmp    0x10(%esp),%edx
  403e84:	77 08                	ja     0x403e8e
  403e86:	72 07                	jb     0x403e8f
  403e88:	3b 44 24 0c          	cmp    0xc(%esp),%eax
  403e8c:	76 01                	jbe    0x403e8f
  403e8e:	4e                   	dec    %esi
  403e8f:	33 d2                	xor    %edx,%edx
  403e91:	8b c6                	mov    %esi,%eax
  403e93:	5e                   	pop    %esi
  403e94:	5b                   	pop    %ebx
  403e95:	c2 10 00             	ret    $0x10
  403e98:	cc                   	int3   
  403e99:	cc                   	int3   
  403e9a:	cc                   	int3   
  403e9b:	cc                   	int3   
  403e9c:	cc                   	int3   
  403e9d:	cc                   	int3   
  403e9e:	cc                   	int3   
  403e9f:	cc                   	int3   
  403ea0:	53                   	push   %ebx
  403ea1:	8b 44 24 14          	mov    0x14(%esp),%eax
  403ea5:	0b c0                	or     %eax,%eax
  403ea7:	75 18                	jne    0x403ec1
  403ea9:	8b 4c 24 10          	mov    0x10(%esp),%ecx
  403ead:	8b 44 24 0c          	mov    0xc(%esp),%eax
  403eb1:	33 d2                	xor    %edx,%edx
  403eb3:	f7 f1                	div    %ecx
  403eb5:	8b 44 24 08          	mov    0x8(%esp),%eax
  403eb9:	f7 f1                	div    %ecx
  403ebb:	8b c2                	mov    %edx,%eax
  403ebd:	33 d2                	xor    %edx,%edx
  403ebf:	eb 50                	jmp    0x403f11
  403ec1:	8b c8                	mov    %eax,%ecx
  403ec3:	8b 5c 24 10          	mov    0x10(%esp),%ebx
  403ec7:	8b 54 24 0c          	mov    0xc(%esp),%edx
  403ecb:	8b 44 24 08          	mov    0x8(%esp),%eax
  403ecf:	d1 e9                	shr    %ecx
  403ed1:	d1 db                	rcr    %ebx
  403ed3:	d1 ea                	shr    %edx
  403ed5:	d1 d8                	rcr    %eax
  403ed7:	0b c9                	or     %ecx,%ecx
  403ed9:	75 f4                	jne    0x403ecf
  403edb:	f7 f3                	div    %ebx
  403edd:	8b c8                	mov    %eax,%ecx
  403edf:	f7 64 24 14          	mull   0x14(%esp)
  403ee3:	91                   	xchg   %eax,%ecx
  403ee4:	f7 64 24 10          	mull   0x10(%esp)
  403ee8:	03 d1                	add    %ecx,%edx
  403eea:	72 0e                	jb     0x403efa
  403eec:	3b 54 24 0c          	cmp    0xc(%esp),%edx
  403ef0:	77 08                	ja     0x403efa
  403ef2:	72 0e                	jb     0x403f02
  403ef4:	3b 44 24 08          	cmp    0x8(%esp),%eax
  403ef8:	76 08                	jbe    0x403f02
  403efa:	2b 44 24 10          	sub    0x10(%esp),%eax
  403efe:	1b 54 24 14          	sbb    0x14(%esp),%edx
  403f02:	2b 44 24 08          	sub    0x8(%esp),%eax
  403f06:	1b 54 24 0c          	sbb    0xc(%esp),%edx
  403f0a:	f7 da                	neg    %edx
  403f0c:	f7 d8                	neg    %eax
  403f0e:	83 da 00             	sbb    $0x0,%edx
  403f11:	5b                   	pop    %ebx
  403f12:	c2 10 00             	ret    $0x10
  403f15:	68 40 01 00 00       	push   $0x140
  403f1a:	6a 00                	push   $0x0
  403f1c:	ff 35 00 93 40 00    	pushl  0x409300
  403f22:	ff 15 88 70 40 00    	call   *0x407088
  403f28:	85 c0                	test   %eax,%eax
  403f2a:	a3 fc 92 40 00       	mov    %eax,0x4092fc
  403f2f:	75 01                	jne    0x403f32
  403f31:	c3                   	ret    
  403f32:	83 25 f4 92 40 00 00 	andl   $0x0,0x4092f4
  403f39:	83 25 f8 92 40 00 00 	andl   $0x0,0x4092f8
  403f40:	6a 01                	push   $0x1
  403f42:	a3 f0 92 40 00       	mov    %eax,0x4092f0
  403f47:	c7 05 e8 92 40 00 10 	movl   $0x10,0x4092e8
  403f4e:	00 00 00 
  403f51:	58                   	pop    %eax
  403f52:	c3                   	ret    
  403f53:	a1 f8 92 40 00       	mov    0x4092f8,%eax
  403f58:	8d 0c 80             	lea    (%eax,%eax,4),%ecx
  403f5b:	a1 fc 92 40 00       	mov    0x4092fc,%eax
  403f60:	8d 0c 88             	lea    (%eax,%ecx,4),%ecx
  403f63:	3b c1                	cmp    %ecx,%eax
  403f65:	73 14                	jae    0x403f7b
  403f67:	8b 54 24 04          	mov    0x4(%esp),%edx
  403f6b:	2b 50 0c             	sub    0xc(%eax),%edx
  403f6e:	81 fa 00 00 10 00    	cmp    $0x100000,%edx
  403f74:	72 07                	jb     0x403f7d
  403f76:	83 c0 14             	add    $0x14,%eax
  403f79:	eb e8                	jmp    0x403f63
  403f7b:	33 c0                	xor    %eax,%eax
  403f7d:	c3                   	ret    
  403f7e:	55                   	push   %ebp
  403f7f:	8b ec                	mov    %esp,%ebp
  403f81:	83 ec 14             	sub    $0x14,%esp
  403f84:	8b 55 0c             	mov    0xc(%ebp),%edx
  403f87:	8b 4d 08             	mov    0x8(%ebp),%ecx
  403f8a:	53                   	push   %ebx
  403f8b:	56                   	push   %esi
  403f8c:	8b 41 10             	mov    0x10(%ecx),%eax
  403f8f:	8b f2                	mov    %edx,%esi
  403f91:	2b 71 0c             	sub    0xc(%ecx),%esi
  403f94:	8b 5a fc             	mov    -0x4(%edx),%ebx
  403f97:	83 c2 fc             	add    $0xfffffffc,%edx
  403f9a:	57                   	push   %edi
  403f9b:	c1 ee 0f             	shr    $0xf,%esi
  403f9e:	8b ce                	mov    %esi,%ecx
  403fa0:	8b 7a fc             	mov    -0x4(%edx),%edi
  403fa3:	69 c9 04 02 00 00    	imul   $0x204,%ecx,%ecx
  403fa9:	4b                   	dec    %ebx
  403faa:	89 7d fc             	mov    %edi,-0x4(%ebp)
  403fad:	8d 8c 01 44 01 00 00 	lea    0x144(%ecx,%eax,1),%ecx
  403fb4:	89 5d f4             	mov    %ebx,-0xc(%ebp)
  403fb7:	89 4d f0             	mov    %ecx,-0x10(%ebp)
  403fba:	8b 0c 13             	mov    (%ebx,%edx,1),%ecx
  403fbd:	f6 c1 01             	test   $0x1,%cl
  403fc0:	89 4d f8             	mov    %ecx,-0x8(%ebp)
  403fc3:	75 7f                	jne    0x404044
  403fc5:	c1 f9 04             	sar    $0x4,%ecx
  403fc8:	6a 3f                	push   $0x3f
  403fca:	49                   	dec    %ecx
  403fcb:	5f                   	pop    %edi
  403fcc:	89 4d 0c             	mov    %ecx,0xc(%ebp)
  403fcf:	3b cf                	cmp    %edi,%ecx
  403fd1:	76 03                	jbe    0x403fd6
  403fd3:	89 7d 0c             	mov    %edi,0xc(%ebp)
  403fd6:	8b 4c 13 04          	mov    0x4(%ebx,%edx,1),%ecx
  403fda:	3b 4c 13 08          	cmp    0x8(%ebx,%edx,1),%ecx
  403fde:	75 48                	jne    0x404028
  403fe0:	8b 4d 0c             	mov    0xc(%ebp),%ecx
  403fe3:	83 f9 20             	cmp    $0x20,%ecx
  403fe6:	73 1c                	jae    0x404004
  403fe8:	bf 00 00 00 80       	mov    $0x80000000,%edi
  403fed:	d3 ef                	shr    %cl,%edi
  403fef:	8d 4c 01 04          	lea    0x4(%ecx,%eax,1),%ecx
  403ff3:	f7 d7                	not    %edi
  403ff5:	21 7c b0 44          	and    %edi,0x44(%eax,%esi,4)
  403ff9:	fe 09                	decb   (%ecx)
  403ffb:	75 2b                	jne    0x404028
  403ffd:	8b 4d 08             	mov    0x8(%ebp),%ecx
  404000:	21 39                	and    %edi,(%ecx)
  404002:	eb 24                	jmp    0x404028
  404004:	83 c1 e0             	add    $0xffffffe0,%ecx
  404007:	bf 00 00 00 80       	mov    $0x80000000,%edi
  40400c:	d3 ef                	shr    %cl,%edi
  40400e:	8b 4d 0c             	mov    0xc(%ebp),%ecx
  404011:	8d 4c 01 04          	lea    0x4(%ecx,%eax,1),%ecx
  404015:	f7 d7                	not    %edi
  404017:	21 bc b0 c4 00 00 00 	and    %edi,0xc4(%eax,%esi,4)
  40401e:	fe 09                	decb   (%ecx)
  404020:	75 06                	jne    0x404028
  404022:	8b 4d 08             	mov    0x8(%ebp),%ecx
  404025:	21 79 04             	and    %edi,0x4(%ecx)
  404028:	8b 4c 13 08          	mov    0x8(%ebx,%edx,1),%ecx
  40402c:	8b 7c 13 04          	mov    0x4(%ebx,%edx,1),%edi
  404030:	89 79 04             	mov    %edi,0x4(%ecx)
  404033:	8b 4c 13 04          	mov    0x4(%ebx,%edx,1),%ecx
  404037:	8b 7c 13 08          	mov    0x8(%ebx,%edx,1),%edi
  40403b:	03 5d f8             	add    -0x8(%ebp),%ebx
  40403e:	89 79 08             	mov    %edi,0x8(%ecx)
  404041:	89 5d f4             	mov    %ebx,-0xc(%ebp)
  404044:	8b fb                	mov    %ebx,%edi
  404046:	c1 ff 04             	sar    $0x4,%edi
  404049:	4f                   	dec    %edi
  40404a:	83 ff 3f             	cmp    $0x3f,%edi
  40404d:	76 03                	jbe    0x404052
  40404f:	6a 3f                	push   $0x3f
  404051:	5f                   	pop    %edi
  404052:	8b 4d fc             	mov    -0x4(%ebp),%ecx
  404055:	83 e1 01             	and    $0x1,%ecx
  404058:	89 4d ec             	mov    %ecx,-0x14(%ebp)
  40405b:	0f 85 a0 00 00 00    	jne    0x404101
  404061:	2b 55 fc             	sub    -0x4(%ebp),%edx
  404064:	8b 4d fc             	mov    -0x4(%ebp),%ecx
  404067:	c1 f9 04             	sar    $0x4,%ecx
  40406a:	6a 3f                	push   $0x3f
  40406c:	89 55 f8             	mov    %edx,-0x8(%ebp)
  40406f:	49                   	dec    %ecx
  404070:	5a                   	pop    %edx
  404071:	3b ca                	cmp    %edx,%ecx
  404073:	89 4d 0c             	mov    %ecx,0xc(%ebp)
  404076:	76 05                	jbe    0x40407d
  404078:	89 55 0c             	mov    %edx,0xc(%ebp)
  40407b:	8b ca                	mov    %edx,%ecx
  40407d:	03 5d fc             	add    -0x4(%ebp),%ebx
  404080:	8b fb                	mov    %ebx,%edi
  404082:	89 5d f4             	mov    %ebx,-0xc(%ebp)
  404085:	c1 ff 04             	sar    $0x4,%edi
  404088:	4f                   	dec    %edi
  404089:	3b fa                	cmp    %edx,%edi
  40408b:	76 02                	jbe    0x40408f
  40408d:	8b fa                	mov    %edx,%edi
  40408f:	3b cf                	cmp    %edi,%ecx
  404091:	74 6b                	je     0x4040fe
  404093:	8b 4d f8             	mov    -0x8(%ebp),%ecx
  404096:	8b 51 04             	mov    0x4(%ecx),%edx
  404099:	3b 51 08             	cmp    0x8(%ecx),%edx
  40409c:	75 48                	jne    0x4040e6
  40409e:	8b 4d 0c             	mov    0xc(%ebp),%ecx
  4040a1:	83 f9 20             	cmp    $0x20,%ecx
  4040a4:	73 1c                	jae    0x4040c2
  4040a6:	ba 00 00 00 80       	mov    $0x80000000,%edx
  4040ab:	d3 ea                	shr    %cl,%edx
  4040ad:	8d 4c 01 04          	lea    0x4(%ecx,%eax,1),%ecx
  4040b1:	f7 d2                	not    %edx
  4040b3:	21 54 b0 44          	and    %edx,0x44(%eax,%esi,4)
  4040b7:	fe 09                	decb   (%ecx)
  4040b9:	75 2b                	jne    0x4040e6
  4040bb:	8b 4d 08             	mov    0x8(%ebp),%ecx
  4040be:	21 11                	and    %edx,(%ecx)
  4040c0:	eb 24                	jmp    0x4040e6
  4040c2:	83 c1 e0             	add    $0xffffffe0,%ecx
  4040c5:	ba 00 00 00 80       	mov    $0x80000000,%edx
  4040ca:	d3 ea                	shr    %cl,%edx
  4040cc:	8b 4d 0c             	mov    0xc(%ebp),%ecx
  4040cf:	8d 4c 01 04          	lea    0x4(%ecx,%eax,1),%ecx
  4040d3:	f7 d2                	not    %edx
  4040d5:	21 94 b0 c4 00 00 00 	and    %edx,0xc4(%eax,%esi,4)
  4040dc:	fe 09                	decb   (%ecx)
  4040de:	75 06                	jne    0x4040e6
  4040e0:	8b 4d 08             	mov    0x8(%ebp),%ecx
  4040e3:	21 51 04             	and    %edx,0x4(%ecx)
  4040e6:	8b 4d f8             	mov    -0x8(%ebp),%ecx
  4040e9:	8b 51 08             	mov    0x8(%ecx),%edx
  4040ec:	8b 49 04             	mov    0x4(%ecx),%ecx
  4040ef:	89 4a 04             	mov    %ecx,0x4(%edx)
  4040f2:	8b 4d f8             	mov    -0x8(%ebp),%ecx
  4040f5:	8b 51 04             	mov    0x4(%ecx),%edx
  4040f8:	8b 49 08             	mov    0x8(%ecx),%ecx
  4040fb:	89 4a 08             	mov    %ecx,0x8(%edx)
  4040fe:	8b 55 f8             	mov    -0x8(%ebp),%edx
  404101:	83 7d ec 00          	cmpl   $0x0,-0x14(%ebp)
  404105:	75 09                	jne    0x404110
  404107:	39 7d 0c             	cmp    %edi,0xc(%ebp)
  40410a:	0f 84 89 00 00 00    	je     0x404199
  404110:	8b 4d f0             	mov    -0x10(%ebp),%ecx
  404113:	8d 0c f9             	lea    (%ecx,%edi,8),%ecx
  404116:	8b 49 04             	mov    0x4(%ecx),%ecx
  404119:	89 4a 04             	mov    %ecx,0x4(%edx)
  40411c:	8b 4d f0             	mov    -0x10(%ebp),%ecx
  40411f:	8d 0c f9             	lea    (%ecx,%edi,8),%ecx
  404122:	89 4a 08             	mov    %ecx,0x8(%edx)
  404125:	89 51 04             	mov    %edx,0x4(%ecx)
  404128:	8b 4a 04             	mov    0x4(%edx),%ecx
  40412b:	89 51 08             	mov    %edx,0x8(%ecx)
  40412e:	8b 4a 04             	mov    0x4(%edx),%ecx
  404131:	3b 4a 08             	cmp    0x8(%edx),%ecx
  404134:	75 63                	jne    0x404199
  404136:	8a 4c 07 04          	mov    0x4(%edi,%eax,1),%cl
  40413a:	83 ff 20             	cmp    $0x20,%edi
  40413d:	88 4d 0f             	mov    %cl,0xf(%ebp)
  404140:	fe c1                	inc    %cl
  404142:	88 4c 07 04          	mov    %cl,0x4(%edi,%eax,1)
  404146:	73 25                	jae    0x40416d
  404148:	80 7d 0f 00          	cmpb   $0x0,0xf(%ebp)
  40414c:	75 0e                	jne    0x40415c
  40414e:	bb 00 00 00 80       	mov    $0x80000000,%ebx
  404153:	8b cf                	mov    %edi,%ecx
  404155:	d3 eb                	shr    %cl,%ebx
  404157:	8b 4d 08             	mov    0x8(%ebp),%ecx
  40415a:	09 19                	or     %ebx,(%ecx)
  40415c:	bb 00 00 00 80       	mov    $0x80000000,%ebx
  404161:	8b cf                	mov    %edi,%ecx
  404163:	d3 eb                	shr    %cl,%ebx
  404165:	8d 44 b0 44          	lea    0x44(%eax,%esi,4),%eax
  404169:	09 18                	or     %ebx,(%eax)
  40416b:	eb 29                	jmp    0x404196
  40416d:	80 7d 0f 00          	cmpb   $0x0,0xf(%ebp)
  404171:	75 10                	jne    0x404183
  404173:	8d 4f e0             	lea    -0x20(%edi),%ecx
  404176:	bb 00 00 00 80       	mov    $0x80000000,%ebx
  40417b:	d3 eb                	shr    %cl,%ebx
  40417d:	8b 4d 08             	mov    0x8(%ebp),%ecx
  404180:	09 59 04             	or     %ebx,0x4(%ecx)
  404183:	8d 4f e0             	lea    -0x20(%edi),%ecx
  404186:	bf 00 00 00 80       	mov    $0x80000000,%edi
  40418b:	d3 ef                	shr    %cl,%edi
  40418d:	8d 84 b0 c4 00 00 00 	lea    0xc4(%eax,%esi,4),%eax
  404194:	09 38                	or     %edi,(%eax)
  404196:	8b 5d f4             	mov    -0xc(%ebp),%ebx
  404199:	8b 45 f0             	mov    -0x10(%ebp),%eax
  40419c:	89 1a                	mov    %ebx,(%edx)
  40419e:	89 5c 13 fc          	mov    %ebx,-0x4(%ebx,%edx,1)
  4041a2:	ff 08                	decl   (%eax)
  4041a4:	0f 85 fa 00 00 00    	jne    0x4042a4
  4041aa:	a1 f4 92 40 00       	mov    0x4092f4,%eax
  4041af:	85 c0                	test   %eax,%eax
  4041b1:	0f 84 df 00 00 00    	je     0x404296
  4041b7:	8b 0d ec 92 40 00    	mov    0x4092ec,%ecx
  4041bd:	8b 3d 7c 70 40 00    	mov    0x40707c,%edi
  4041c3:	c1 e1 0f             	shl    $0xf,%ecx
  4041c6:	03 48 0c             	add    0xc(%eax),%ecx
  4041c9:	bb 00 80 00 00       	mov    $0x8000,%ebx
  4041ce:	68 00 40 00 00       	push   $0x4000
  4041d3:	53                   	push   %ebx
  4041d4:	51                   	push   %ecx
  4041d5:	ff d7                	call   *%edi
  4041d7:	8b 0d ec 92 40 00    	mov    0x4092ec,%ecx
  4041dd:	a1 f4 92 40 00       	mov    0x4092f4,%eax
  4041e2:	ba 00 00 00 80       	mov    $0x80000000,%edx
  4041e7:	d3 ea                	shr    %cl,%edx
  4041e9:	09 50 08             	or     %edx,0x8(%eax)
  4041ec:	a1 f4 92 40 00       	mov    0x4092f4,%eax
  4041f1:	8b 0d ec 92 40 00    	mov    0x4092ec,%ecx
  4041f7:	8b 40 10             	mov    0x10(%eax),%eax
  4041fa:	83 a4 88 c4 00 00 00 	andl   $0x0,0xc4(%eax,%ecx,4)
  404201:	00 
  404202:	a1 f4 92 40 00       	mov    0x4092f4,%eax
  404207:	8b 40 10             	mov    0x10(%eax),%eax
  40420a:	fe 48 43             	decb   0x43(%eax)
  40420d:	a1 f4 92 40 00       	mov    0x4092f4,%eax
  404212:	8b 48 10             	mov    0x10(%eax),%ecx
  404215:	80 79 43 00          	cmpb   $0x0,0x43(%ecx)
  404219:	75 09                	jne    0x404224
  40421b:	83 60 04 fe          	andl   $0xfffffffe,0x4(%eax)
  40421f:	a1 f4 92 40 00       	mov    0x4092f4,%eax
  404224:	83 78 08 ff          	cmpl   $0xffffffff,0x8(%eax)
  404228:	75 6c                	jne    0x404296
  40422a:	53                   	push   %ebx
  40422b:	6a 00                	push   $0x0
  40422d:	ff 70 0c             	pushl  0xc(%eax)
  404230:	ff d7                	call   *%edi
  404232:	a1 f4 92 40 00       	mov    0x4092f4,%eax
  404237:	ff 70 10             	pushl  0x10(%eax)
  40423a:	6a 00                	push   $0x0
  40423c:	ff 35 00 93 40 00    	pushl  0x409300
  404242:	ff 15 14 70 40 00    	call   *0x407014
  404248:	a1 f8 92 40 00       	mov    0x4092f8,%eax
  40424d:	8b 15 fc 92 40 00    	mov    0x4092fc,%edx
  404253:	8d 04 80             	lea    (%eax,%eax,4),%eax
  404256:	c1 e0 02             	shl    $0x2,%eax
  404259:	8b c8                	mov    %eax,%ecx
  40425b:	a1 f4 92 40 00       	mov    0x4092f4,%eax
  404260:	2b c8                	sub    %eax,%ecx
  404262:	8d 4c 11 ec          	lea    -0x14(%ecx,%edx,1),%ecx
  404266:	51                   	push   %ecx
  404267:	8d 48 14             	lea    0x14(%eax),%ecx
  40426a:	51                   	push   %ecx
  40426b:	50                   	push   %eax
  40426c:	e8 6f 15 00 00       	call   0x4057e0
  404271:	8b 45 08             	mov    0x8(%ebp),%eax
  404274:	83 c4 0c             	add    $0xc,%esp
  404277:	ff 0d f8 92 40 00    	decl   0x4092f8
  40427d:	3b 05 f4 92 40 00    	cmp    0x4092f4,%eax
  404283:	76 03                	jbe    0x404288
  404285:	83 e8 14             	sub    $0x14,%eax
  404288:	8b 0d fc 92 40 00    	mov    0x4092fc,%ecx
  40428e:	89 0d f0 92 40 00    	mov    %ecx,0x4092f0
  404294:	eb 03                	jmp    0x404299
  404296:	8b 45 08             	mov    0x8(%ebp),%eax
  404299:	a3 f4 92 40 00       	mov    %eax,0x4092f4
  40429e:	89 35 ec 92 40 00    	mov    %esi,0x4092ec
  4042a4:	5f                   	pop    %edi
  4042a5:	5e                   	pop    %esi
  4042a6:	5b                   	pop    %ebx
  4042a7:	c9                   	leave  
  4042a8:	c3                   	ret    
  4042a9:	55                   	push   %ebp
  4042aa:	8b ec                	mov    %esp,%ebp
  4042ac:	83 ec 14             	sub    $0x14,%esp
  4042af:	a1 f8 92 40 00       	mov    0x4092f8,%eax
  4042b4:	8b 15 fc 92 40 00    	mov    0x4092fc,%edx
  4042ba:	53                   	push   %ebx
  4042bb:	56                   	push   %esi
  4042bc:	8d 04 80             	lea    (%eax,%eax,4),%eax
  4042bf:	57                   	push   %edi
  4042c0:	8d 3c 82             	lea    (%edx,%eax,4),%edi
  4042c3:	8b 45 08             	mov    0x8(%ebp),%eax
  4042c6:	89 7d fc             	mov    %edi,-0x4(%ebp)
  4042c9:	8d 48 17             	lea    0x17(%eax),%ecx
  4042cc:	83 e1 f0             	and    $0xfffffff0,%ecx
  4042cf:	89 4d f0             	mov    %ecx,-0x10(%ebp)
  4042d2:	c1 f9 04             	sar    $0x4,%ecx
  4042d5:	49                   	dec    %ecx
  4042d6:	83 f9 20             	cmp    $0x20,%ecx
  4042d9:	7d 0e                	jge    0x4042e9
  4042db:	83 ce ff             	or     $0xffffffff,%esi
  4042de:	d3 ee                	shr    %cl,%esi
  4042e0:	83 4d f8 ff          	orl    $0xffffffff,-0x8(%ebp)
  4042e4:	89 75 f4             	mov    %esi,-0xc(%ebp)
  4042e7:	eb 10                	jmp    0x4042f9
  4042e9:	83 c1 e0             	add    $0xffffffe0,%ecx
  4042ec:	83 c8 ff             	or     $0xffffffff,%eax
  4042ef:	33 f6                	xor    %esi,%esi
  4042f1:	d3 e8                	shr    %cl,%eax
  4042f3:	89 75 f4             	mov    %esi,-0xc(%ebp)
  4042f6:	89 45 f8             	mov    %eax,-0x8(%ebp)
  4042f9:	a1 f0 92 40 00       	mov    0x4092f0,%eax
  4042fe:	8b d8                	mov    %eax,%ebx
  404300:	3b df                	cmp    %edi,%ebx
  404302:	89 5d 08             	mov    %ebx,0x8(%ebp)
  404305:	73 19                	jae    0x404320
  404307:	8b 4b 04             	mov    0x4(%ebx),%ecx
  40430a:	8b 3b                	mov    (%ebx),%edi
  40430c:	23 4d f8             	and    -0x8(%ebp),%ecx
  40430f:	23 fe                	and    %esi,%edi
  404311:	0b cf                	or     %edi,%ecx
  404313:	75 0b                	jne    0x404320
  404315:	83 c3 14             	add    $0x14,%ebx
  404318:	3b 5d fc             	cmp    -0x4(%ebp),%ebx
  40431b:	89 5d 08             	mov    %ebx,0x8(%ebp)
  40431e:	72 e7                	jb     0x404307
  404320:	3b 5d fc             	cmp    -0x4(%ebp),%ebx
  404323:	75 79                	jne    0x40439e
  404325:	8b da                	mov    %edx,%ebx
  404327:	3b d8                	cmp    %eax,%ebx
  404329:	89 5d 08             	mov    %ebx,0x8(%ebp)
  40432c:	73 15                	jae    0x404343
  40432e:	8b 4b 04             	mov    0x4(%ebx),%ecx
  404331:	8b 3b                	mov    (%ebx),%edi
  404333:	23 4d f8             	and    -0x8(%ebp),%ecx
  404336:	23 fe                	and    %esi,%edi
  404338:	0b cf                	or     %edi,%ecx
  40433a:	75 05                	jne    0x404341
  40433c:	83 c3 14             	add    $0x14,%ebx
  40433f:	eb e6                	jmp    0x404327
  404341:	3b d8                	cmp    %eax,%ebx
  404343:	75 59                	jne    0x40439e
  404345:	3b 5d fc             	cmp    -0x4(%ebp),%ebx
  404348:	73 11                	jae    0x40435b
  40434a:	83 7b 08 00          	cmpl   $0x0,0x8(%ebx)
  40434e:	75 08                	jne    0x404358
  404350:	83 c3 14             	add    $0x14,%ebx
  404353:	89 5d 08             	mov    %ebx,0x8(%ebp)
  404356:	eb ed                	jmp    0x404345
  404358:	3b 5d fc             	cmp    -0x4(%ebp),%ebx
  40435b:	75 26                	jne    0x404383
  40435d:	8b da                	mov    %edx,%ebx
  40435f:	3b d8                	cmp    %eax,%ebx
  404361:	89 5d 08             	mov    %ebx,0x8(%ebp)
  404364:	73 0d                	jae    0x404373
  404366:	83 7b 08 00          	cmpl   $0x0,0x8(%ebx)
  40436a:	75 05                	jne    0x404371
  40436c:	83 c3 14             	add    $0x14,%ebx
  40436f:	eb ee                	jmp    0x40435f
  404371:	3b d8                	cmp    %eax,%ebx
  404373:	75 0e                	jne    0x404383
  404375:	e8 38 02 00 00       	call   0x4045b2
  40437a:	8b d8                	mov    %eax,%ebx
  40437c:	85 db                	test   %ebx,%ebx
  40437e:	89 5d 08             	mov    %ebx,0x8(%ebp)
  404381:	74 14                	je     0x404397
  404383:	53                   	push   %ebx
  404384:	e8 da 02 00 00       	call   0x404663
  404389:	59                   	pop    %ecx
  40438a:	8b 4b 10             	mov    0x10(%ebx),%ecx
  40438d:	89 01                	mov    %eax,(%ecx)
  40438f:	8b 43 10             	mov    0x10(%ebx),%eax
  404392:	83 38 ff             	cmpl   $0xffffffff,(%eax)
  404395:	75 07                	jne    0x40439e
  404397:	33 c0                	xor    %eax,%eax
  404399:	e9 0f 02 00 00       	jmp    0x4045ad
  40439e:	89 1d f0 92 40 00    	mov    %ebx,0x4092f0
  4043a4:	8b 43 10             	mov    0x10(%ebx),%eax
  4043a7:	8b 10                	mov    (%eax),%edx
  4043a9:	83 fa ff             	cmp    $0xffffffff,%edx
  4043ac:	89 55 fc             	mov    %edx,-0x4(%ebp)
  4043af:	74 14                	je     0x4043c5
  4043b1:	8b 8c 90 c4 00 00 00 	mov    0xc4(%eax,%edx,4),%ecx
  4043b8:	8b 7c 90 44          	mov    0x44(%eax,%edx,4),%edi
  4043bc:	23 4d f8             	and    -0x8(%ebp),%ecx
  4043bf:	23 fe                	and    %esi,%edi
  4043c1:	0b cf                	or     %edi,%ecx
  4043c3:	75 37                	jne    0x4043fc
  4043c5:	8b 90 c4 00 00 00    	mov    0xc4(%eax),%edx
  4043cb:	8b 70 44             	mov    0x44(%eax),%esi
  4043ce:	23 55 f8             	and    -0x8(%ebp),%edx
  4043d1:	23 75 f4             	and    -0xc(%ebp),%esi
  4043d4:	83 65 fc 00          	andl   $0x0,-0x4(%ebp)
  4043d8:	8d 48 44             	lea    0x44(%eax),%ecx
  4043db:	0b d6                	or     %esi,%edx
  4043dd:	8b 75 f4             	mov    -0xc(%ebp),%esi
  4043e0:	75 17                	jne    0x4043f9
  4043e2:	8b 91 84 00 00 00    	mov    0x84(%ecx),%edx
  4043e8:	ff 45 fc             	incl   -0x4(%ebp)
  4043eb:	23 55 f8             	and    -0x8(%ebp),%edx
  4043ee:	83 c1 04             	add    $0x4,%ecx
  4043f1:	8b fe                	mov    %esi,%edi
  4043f3:	23 39                	and    (%ecx),%edi
  4043f5:	0b d7                	or     %edi,%edx
  4043f7:	74 e9                	je     0x4043e2
  4043f9:	8b 55 fc             	mov    -0x4(%ebp),%edx
  4043fc:	8b ca                	mov    %edx,%ecx
  4043fe:	33 ff                	xor    %edi,%edi
  404400:	69 c9 04 02 00 00    	imul   $0x204,%ecx,%ecx
  404406:	8d 8c 01 44 01 00 00 	lea    0x144(%ecx,%eax,1),%ecx
  40440d:	89 4d f4             	mov    %ecx,-0xc(%ebp)
  404410:	8b 4c 90 44          	mov    0x44(%eax,%edx,4),%ecx
  404414:	23 ce                	and    %esi,%ecx
  404416:	75 0d                	jne    0x404425
  404418:	8b 8c 90 c4 00 00 00 	mov    0xc4(%eax,%edx,4),%ecx
  40441f:	6a 20                	push   $0x20
  404421:	23 4d f8             	and    -0x8(%ebp),%ecx
  404424:	5f                   	pop    %edi
  404425:	85 c9                	test   %ecx,%ecx
  404427:	7c 05                	jl     0x40442e
  404429:	d1 e1                	shl    %ecx
  40442b:	47                   	inc    %edi
  40442c:	eb f7                	jmp    0x404425
  40442e:	8b 4d f4             	mov    -0xc(%ebp),%ecx
  404431:	8b 54 f9 04          	mov    0x4(%ecx,%edi,8),%edx
  404435:	8b 0a                	mov    (%edx),%ecx
  404437:	2b 4d f0             	sub    -0x10(%ebp),%ecx
  40443a:	8b f1                	mov    %ecx,%esi
  40443c:	89 4d f8             	mov    %ecx,-0x8(%ebp)
  40443f:	c1 fe 04             	sar    $0x4,%esi
  404442:	4e                   	dec    %esi
  404443:	83 fe 3f             	cmp    $0x3f,%esi
  404446:	7e 03                	jle    0x40444b
  404448:	6a 3f                	push   $0x3f
  40444a:	5e                   	pop    %esi
  40444b:	3b f7                	cmp    %edi,%esi
  40444d:	0f 84 0d 01 00 00    	je     0x404560
  404453:	8b 4a 04             	mov    0x4(%edx),%ecx
  404456:	3b 4a 08             	cmp    0x8(%edx),%ecx
  404459:	75 61                	jne    0x4044bc
  40445b:	83 ff 20             	cmp    $0x20,%edi
  40445e:	7d 2b                	jge    0x40448b
  404460:	bb 00 00 00 80       	mov    $0x80000000,%ebx
  404465:	8b cf                	mov    %edi,%ecx
  404467:	d3 eb                	shr    %cl,%ebx
  404469:	8b 4d fc             	mov    -0x4(%ebp),%ecx
  40446c:	8d 7c 38 04          	lea    0x4(%eax,%edi,1),%edi
  404470:	f7 d3                	not    %ebx
  404472:	89 5d ec             	mov    %ebx,-0x14(%ebp)
  404475:	23 5c 88 44          	and    0x44(%eax,%ecx,4),%ebx
  404479:	89 5c 88 44          	mov    %ebx,0x44(%eax,%ecx,4)
  40447d:	fe 0f                	decb   (%edi)
  40447f:	75 38                	jne    0x4044b9
  404481:	8b 5d 08             	mov    0x8(%ebp),%ebx
  404484:	8b 4d ec             	mov    -0x14(%ebp),%ecx
  404487:	21 0b                	and    %ecx,(%ebx)
  404489:	eb 31                	jmp    0x4044bc
  40448b:	8d 4f e0             	lea    -0x20(%edi),%ecx
  40448e:	bb 00 00 00 80       	mov    $0x80000000,%ebx
  404493:	d3 eb                	shr    %cl,%ebx
  404495:	8b 4d fc             	mov    -0x4(%ebp),%ecx
  404498:	8d 7c 38 04          	lea    0x4(%eax,%edi,1),%edi
  40449c:	8d 8c 88 c4 00 00 00 	lea    0xc4(%eax,%ecx,4),%ecx
  4044a3:	f7 d3                	not    %ebx
  4044a5:	21 19                	and    %ebx,(%ecx)
  4044a7:	fe 0f                	decb   (%edi)
  4044a9:	89 5d ec             	mov    %ebx,-0x14(%ebp)
  4044ac:	75 0b                	jne    0x4044b9
  4044ae:	8b 5d 08             	mov    0x8(%ebp),%ebx
  4044b1:	8b 4d ec             	mov    -0x14(%ebp),%ecx
  4044b4:	21 4b 04             	and    %ecx,0x4(%ebx)
  4044b7:	eb 03                	jmp    0x4044bc
  4044b9:	8b 5d 08             	mov    0x8(%ebp),%ebx
  4044bc:	8b 4a 08             	mov    0x8(%edx),%ecx
  4044bf:	8b 7a 04             	mov    0x4(%edx),%edi
  4044c2:	83 7d f8 00          	cmpl   $0x0,-0x8(%ebp)
  4044c6:	89 79 04             	mov    %edi,0x4(%ecx)
  4044c9:	8b 4a 04             	mov    0x4(%edx),%ecx
  4044cc:	8b 7a 08             	mov    0x8(%edx),%edi
  4044cf:	89 79 08             	mov    %edi,0x8(%ecx)
  4044d2:	0f 84 94 00 00 00    	je     0x40456c
  4044d8:	8b 4d f4             	mov    -0xc(%ebp),%ecx
  4044db:	8b 7c f1 04          	mov    0x4(%ecx,%esi,8),%edi
  4044df:	8d 0c f1             	lea    (%ecx,%esi,8),%ecx
  4044e2:	89 7a 04             	mov    %edi,0x4(%edx)
  4044e5:	89 4a 08             	mov    %ecx,0x8(%edx)
  4044e8:	89 51 04             	mov    %edx,0x4(%ecx)
  4044eb:	8b 4a 04             	mov    0x4(%edx),%ecx
  4044ee:	89 51 08             	mov    %edx,0x8(%ecx)
  4044f1:	8b 4a 04             	mov    0x4(%edx),%ecx
  4044f4:	3b 4a 08             	cmp    0x8(%edx),%ecx
  4044f7:	75 64                	jne    0x40455d
  4044f9:	8a 4c 06 04          	mov    0x4(%esi,%eax,1),%cl
  4044fd:	83 fe 20             	cmp    $0x20,%esi
  404500:	88 4d 0b             	mov    %cl,0xb(%ebp)
  404503:	7d 29                	jge    0x40452e
  404505:	fe c1                	inc    %cl
  404507:	80 7d 0b 00          	cmpb   $0x0,0xb(%ebp)
  40450b:	88 4c 06 04          	mov    %cl,0x4(%esi,%eax,1)
  40450f:	75 0b                	jne    0x40451c
  404511:	bf 00 00 00 80       	mov    $0x80000000,%edi
  404516:	8b ce                	mov    %esi,%ecx
  404518:	d3 ef                	shr    %cl,%edi
  40451a:	09 3b                	or     %edi,(%ebx)
  40451c:	bf 00 00 00 80       	mov    $0x80000000,%edi
  404521:	8b ce                	mov    %esi,%ecx
  404523:	d3 ef                	shr    %cl,%edi
  404525:	8b 4d fc             	mov    -0x4(%ebp),%ecx
  404528:	09 7c 88 44          	or     %edi,0x44(%eax,%ecx,4)
  40452c:	eb 2f                	jmp    0x40455d
  40452e:	fe c1                	inc    %cl
  404530:	80 7d 0b 00          	cmpb   $0x0,0xb(%ebp)
  404534:	88 4c 06 04          	mov    %cl,0x4(%esi,%eax,1)
  404538:	75 0d                	jne    0x404547
  40453a:	8d 4e e0             	lea    -0x20(%esi),%ecx
  40453d:	bf 00 00 00 80       	mov    $0x80000000,%edi
  404542:	d3 ef                	shr    %cl,%edi
  404544:	09 7b 04             	or     %edi,0x4(%ebx)
  404547:	8b 4d fc             	mov    -0x4(%ebp),%ecx
  40454a:	8d bc 88 c4 00 00 00 	lea    0xc4(%eax,%ecx,4),%edi
  404551:	8d 4e e0             	lea    -0x20(%esi),%ecx
  404554:	be 00 00 00 80       	mov    $0x80000000,%esi
  404559:	d3 ee                	shr    %cl,%esi
  40455b:	09 37                	or     %esi,(%edi)
  40455d:	8b 4d f8             	mov    -0x8(%ebp),%ecx
  404560:	85 c9                	test   %ecx,%ecx
  404562:	74 0b                	je     0x40456f
  404564:	89 0a                	mov    %ecx,(%edx)
  404566:	89 4c 11 fc          	mov    %ecx,-0x4(%ecx,%edx,1)
  40456a:	eb 03                	jmp    0x40456f
  40456c:	8b 4d f8             	mov    -0x8(%ebp),%ecx
  40456f:	8b 75 f0             	mov    -0x10(%ebp),%esi
  404572:	03 d1                	add    %ecx,%edx
  404574:	8d 4e 01             	lea    0x1(%esi),%ecx
  404577:	89 0a                	mov    %ecx,(%edx)
  404579:	89 4c 32 fc          	mov    %ecx,-0x4(%edx,%esi,1)
  40457d:	8b 75 f4             	mov    -0xc(%ebp),%esi
  404580:	8b 0e                	mov    (%esi),%ecx
  404582:	85 c9                	test   %ecx,%ecx
  404584:	8d 79 01             	lea    0x1(%ecx),%edi
  404587:	89 3e                	mov    %edi,(%esi)
  404589:	75 1a                	jne    0x4045a5
  40458b:	3b 1d f4 92 40 00    	cmp    0x4092f4,%ebx
  404591:	75 12                	jne    0x4045a5
  404593:	8b 4d fc             	mov    -0x4(%ebp),%ecx
  404596:	3b 0d ec 92 40 00    	cmp    0x4092ec,%ecx
  40459c:	75 07                	jne    0x4045a5
  40459e:	83 25 f4 92 40 00 00 	andl   $0x0,0x4092f4
  4045a5:	8b 4d fc             	mov    -0x4(%ebp),%ecx
  4045a8:	89 08                	mov    %ecx,(%eax)
  4045aa:	8d 42 04             	lea    0x4(%edx),%eax
  4045ad:	5f                   	pop    %edi
  4045ae:	5e                   	pop    %esi
  4045af:	5b                   	pop    %ebx
  4045b0:	c9                   	leave  
  4045b1:	c3                   	ret    
  4045b2:	a1 f8 92 40 00       	mov    0x4092f8,%eax
  4045b7:	8b 0d e8 92 40 00    	mov    0x4092e8,%ecx
  4045bd:	56                   	push   %esi
  4045be:	57                   	push   %edi
  4045bf:	33 ff                	xor    %edi,%edi
  4045c1:	3b c1                	cmp    %ecx,%eax
  4045c3:	75 30                	jne    0x4045f5
  4045c5:	8d 44 89 50          	lea    0x50(%ecx,%ecx,4),%eax
  4045c9:	c1 e0 02             	shl    $0x2,%eax
  4045cc:	50                   	push   %eax
  4045cd:	ff 35 fc 92 40 00    	pushl  0x4092fc
  4045d3:	57                   	push   %edi
  4045d4:	ff 35 00 93 40 00    	pushl  0x409300
  4045da:	ff 15 98 70 40 00    	call   *0x407098
  4045e0:	3b c7                	cmp    %edi,%eax
  4045e2:	74 61                	je     0x404645
  4045e4:	83 05 e8 92 40 00 10 	addl   $0x10,0x4092e8
  4045eb:	a3 fc 92 40 00       	mov    %eax,0x4092fc
  4045f0:	a1 f8 92 40 00       	mov    0x4092f8,%eax
  4045f5:	8b 0d fc 92 40 00    	mov    0x4092fc,%ecx
  4045fb:	68 c4 41 00 00       	push   $0x41c4
  404600:	6a 08                	push   $0x8
  404602:	8d 04 80             	lea    (%eax,%eax,4),%eax
  404605:	ff 35 00 93 40 00    	pushl  0x409300
  40460b:	8d 34 81             	lea    (%ecx,%eax,4),%esi
  40460e:	ff 15 88 70 40 00    	call   *0x407088
  404614:	3b c7                	cmp    %edi,%eax
  404616:	89 46 10             	mov    %eax,0x10(%esi)
  404619:	74 2a                	je     0x404645
  40461b:	6a 04                	push   $0x4
  40461d:	68 00 20 00 00       	push   $0x2000
  404622:	68 00 00 10 00       	push   $0x100000
  404627:	57                   	push   %edi
  404628:	ff 15 94 70 40 00    	call   *0x407094
  40462e:	3b c7                	cmp    %edi,%eax
  404630:	89 46 0c             	mov    %eax,0xc(%esi)
  404633:	75 14                	jne    0x404649
  404635:	ff 76 10             	pushl  0x10(%esi)
  404638:	57                   	push   %edi
  404639:	ff 35 00 93 40 00    	pushl  0x409300
  40463f:	ff 15 14 70 40 00    	call   *0x407014
  404645:	33 c0                	xor    %eax,%eax
  404647:	eb 17                	jmp    0x404660
  404649:	83 4e 08 ff          	orl    $0xffffffff,0x8(%esi)
  40464d:	89 3e                	mov    %edi,(%esi)
  40464f:	89 7e 04             	mov    %edi,0x4(%esi)
  404652:	ff 05 f8 92 40 00    	incl   0x4092f8
  404658:	8b 46 10             	mov    0x10(%esi),%eax
  40465b:	83 08 ff             	orl    $0xffffffff,(%eax)
  40465e:	8b c6                	mov    %esi,%eax
  404660:	5f                   	pop    %edi
  404661:	5e                   	pop    %esi
  404662:	c3                   	ret    
  404663:	55                   	push   %ebp
  404664:	8b ec                	mov    %esp,%ebp
  404666:	51                   	push   %ecx
  404667:	8b 4d 08             	mov    0x8(%ebp),%ecx
  40466a:	53                   	push   %ebx
  40466b:	56                   	push   %esi
  40466c:	57                   	push   %edi
  40466d:	8b 71 10             	mov    0x10(%ecx),%esi
  404670:	8b 41 08             	mov    0x8(%ecx),%eax
  404673:	33 db                	xor    %ebx,%ebx
  404675:	85 c0                	test   %eax,%eax
  404677:	7c 05                	jl     0x40467e
  404679:	d1 e0                	shl    %eax
  40467b:	43                   	inc    %ebx
  40467c:	eb f7                	jmp    0x404675
  40467e:	8b c3                	mov    %ebx,%eax
  404680:	6a 3f                	push   $0x3f
  404682:	69 c0 04 02 00 00    	imul   $0x204,%eax,%eax
  404688:	5a                   	pop    %edx
  404689:	8d 84 30 44 01 00 00 	lea    0x144(%eax,%esi,1),%eax
  404690:	89 45 fc             	mov    %eax,-0x4(%ebp)
  404693:	89 40 08             	mov    %eax,0x8(%eax)
  404696:	89 40 04             	mov    %eax,0x4(%eax)
  404699:	83 c0 08             	add    $0x8,%eax
  40469c:	4a                   	dec    %edx
  40469d:	75 f4                	jne    0x404693
  40469f:	8b fb                	mov    %ebx,%edi
  4046a1:	6a 04                	push   $0x4
  4046a3:	c1 e7 0f             	shl    $0xf,%edi
  4046a6:	03 79 0c             	add    0xc(%ecx),%edi
  4046a9:	68 00 10 00 00       	push   $0x1000
  4046ae:	68 00 80 00 00       	push   $0x8000
  4046b3:	57                   	push   %edi
  4046b4:	ff 15 94 70 40 00    	call   *0x407094
  4046ba:	85 c0                	test   %eax,%eax
  4046bc:	75 08                	jne    0x4046c6
  4046be:	83 c8 ff             	or     $0xffffffff,%eax
  4046c1:	e9 93 00 00 00       	jmp    0x404759
  4046c6:	8d 97 00 70 00 00    	lea    0x7000(%edi),%edx
  4046cc:	3b fa                	cmp    %edx,%edi
  4046ce:	77 3c                	ja     0x40470c
  4046d0:	8d 47 10             	lea    0x10(%edi),%eax
  4046d3:	83 48 f8 ff          	orl    $0xffffffff,-0x8(%eax)
  4046d7:	83 88 ec 0f 00 00 ff 	orl    $0xffffffff,0xfec(%eax)
  4046de:	8d 88 fc 0f 00 00    	lea    0xffc(%eax),%ecx
  4046e4:	c7 40 fc f0 0f 00 00 	movl   $0xff0,-0x4(%eax)
  4046eb:	89 08                	mov    %ecx,(%eax)
  4046ed:	8d 88 fc ef ff ff    	lea    -0x1004(%eax),%ecx
  4046f3:	89 48 04             	mov    %ecx,0x4(%eax)
  4046f6:	c7 80 e8 0f 00 00 f0 	movl   $0xff0,0xfe8(%eax)
  4046fd:	0f 00 00 
  404700:	05 00 10 00 00       	add    $0x1000,%eax
  404705:	8d 48 f0             	lea    -0x10(%eax),%ecx
  404708:	3b ca                	cmp    %edx,%ecx
  40470a:	76 c7                	jbe    0x4046d3
  40470c:	8b 45 fc             	mov    -0x4(%ebp),%eax
  40470f:	8d 4f 0c             	lea    0xc(%edi),%ecx
  404712:	05 f8 01 00 00       	add    $0x1f8,%eax
  404717:	6a 01                	push   $0x1
  404719:	5f                   	pop    %edi
  40471a:	89 48 04             	mov    %ecx,0x4(%eax)
  40471d:	89 41 08             	mov    %eax,0x8(%ecx)
  404720:	8d 4a 0c             	lea    0xc(%edx),%ecx
  404723:	89 48 08             	mov    %ecx,0x8(%eax)
  404726:	89 41 04             	mov    %eax,0x4(%ecx)
  404729:	83 64 9e 44 00       	andl   $0x0,0x44(%esi,%ebx,4)
  40472e:	89 bc 9e c4 00 00 00 	mov    %edi,0xc4(%esi,%ebx,4)
  404735:	8a 46 43             	mov    0x43(%esi),%al
  404738:	8a c8                	mov    %al,%cl
  40473a:	fe c1                	inc    %cl
  40473c:	84 c0                	test   %al,%al
  40473e:	8b 45 08             	mov    0x8(%ebp),%eax
  404741:	88 4e 43             	mov    %cl,0x43(%esi)
  404744:	75 03                	jne    0x404749
  404746:	09 78 04             	or     %edi,0x4(%eax)
  404749:	ba 00 00 00 80       	mov    $0x80000000,%edx
  40474e:	8b cb                	mov    %ebx,%ecx
  404750:	d3 ea                	shr    %cl,%edx
  404752:	f7 d2                	not    %edx
  404754:	21 50 08             	and    %edx,0x8(%eax)
  404757:	8b c3                	mov    %ebx,%eax
  404759:	5f                   	pop    %edi
  40475a:	5e                   	pop    %esi
  40475b:	5b                   	pop    %ebx
  40475c:	c9                   	leave  
  40475d:	c3                   	ret    
  40475e:	56                   	push   %esi
  40475f:	e8 76 00 00 00       	call   0x4047da
  404764:	8b 4c 24 08          	mov    0x8(%esp),%ecx
  404768:	33 f6                	xor    %esi,%esi
  40476a:	89 08                	mov    %ecx,(%eax)
  40476c:	b8 a8 87 40 00       	mov    $0x4087a8,%eax
  404771:	3b 08                	cmp    (%eax),%ecx
  404773:	74 22                	je     0x404797
  404775:	83 c0 08             	add    $0x8,%eax
  404778:	46                   	inc    %esi
  404779:	3d 10 89 40 00       	cmp    $0x408910,%eax
  40477e:	7c f1                	jl     0x404771
  404780:	83 f9 13             	cmp    $0x13,%ecx
  404783:	72 22                	jb     0x4047a7
  404785:	83 f9 24             	cmp    $0x24,%ecx
  404788:	77 1d                	ja     0x4047a7
  40478a:	e8 42 00 00 00       	call   0x4047d1
  40478f:	c7 00 0d 00 00 00    	movl   $0xd,(%eax)
  404795:	5e                   	pop    %esi
  404796:	c3                   	ret    
  404797:	e8 35 00 00 00       	call   0x4047d1
  40479c:	8b 0c f5 ac 87 40 00 	mov    0x4087ac(,%esi,8),%ecx
  4047a3:	5e                   	pop    %esi
  4047a4:	89 08                	mov    %ecx,(%eax)
  4047a6:	c3                   	ret    
  4047a7:	81 f9 bc 00 00 00    	cmp    $0xbc,%ecx
  4047ad:	72 15                	jb     0x4047c4
  4047af:	81 f9 ca 00 00 00    	cmp    $0xca,%ecx
  4047b5:	77 0d                	ja     0x4047c4
  4047b7:	e8 15 00 00 00       	call   0x4047d1
  4047bc:	c7 00 08 00 00 00    	movl   $0x8,(%eax)
  4047c2:	5e                   	pop    %esi
  4047c3:	c3                   	ret    
  4047c4:	e8 08 00 00 00       	call   0x4047d1
  4047c9:	c7 00 16 00 00 00    	movl   $0x16,(%eax)
  4047cf:	5e                   	pop    %esi
  4047d0:	c3                   	ret    
  4047d1:	e8 28 ef ff ff       	call   0x4036fe
  4047d6:	83 c0 08             	add    $0x8,%eax
  4047d9:	c3                   	ret    
  4047da:	e8 1f ef ff ff       	call   0x4036fe
  4047df:	83 c0 0c             	add    $0xc,%eax
  4047e2:	c3                   	ret    
  4047e3:	51                   	push   %ecx
  4047e4:	51                   	push   %ecx
  4047e5:	53                   	push   %ebx
  4047e6:	55                   	push   %ebp
  4047e7:	56                   	push   %esi
  4047e8:	57                   	push   %edi
  4047e9:	6a 12                	push   $0x12
  4047eb:	83 cf ff             	or     $0xffffffff,%edi
  4047ee:	e8 44 f4 ff ff       	call   0x403c37
  4047f3:	33 db                	xor    %ebx,%ebx
  4047f5:	59                   	pop    %ecx
  4047f6:	89 5c 24 10          	mov    %ebx,0x10(%esp)
  4047fa:	89 5c 24 14          	mov    %ebx,0x14(%esp)
  4047fe:	bd 20 93 40 00       	mov    $0x409320,%ebp
  404803:	8b 75 00             	mov    0x0(%ebp),%esi
  404806:	85 f6                	test   %esi,%esi
  404808:	0f 84 99 00 00 00    	je     0x4048a7
  40480e:	8d 86 80 04 00 00    	lea    0x480(%esi),%eax
  404814:	3b f0                	cmp    %eax,%esi
  404816:	73 74                	jae    0x40488c
  404818:	f6 46 04 01          	testb  $0x1,0x4(%esi)
  40481c:	75 44                	jne    0x404862
  40481e:	83 7e 08 00          	cmpl   $0x0,0x8(%esi)
  404822:	75 23                	jne    0x404847
  404824:	6a 11                	push   $0x11
  404826:	e8 0c f4 ff ff       	call   0x403c37
  40482b:	83 7e 08 00          	cmpl   $0x0,0x8(%esi)
  40482f:	59                   	pop    %ecx
  404830:	75 0d                	jne    0x40483f
  404832:	8d 46 0c             	lea    0xc(%esi),%eax
  404835:	50                   	push   %eax
  404836:	ff 15 24 70 40 00    	call   *0x407024
  40483c:	ff 46 08             	incl   0x8(%esi)
  40483f:	6a 11                	push   $0x11
  404841:	e8 52 f4 ff ff       	call   0x403c98
  404846:	59                   	pop    %ecx
  404847:	8d 5e 0c             	lea    0xc(%esi),%ebx
  40484a:	53                   	push   %ebx
  40484b:	ff 15 0c 70 40 00    	call   *0x40700c
  404851:	f6 46 04 01          	testb  $0x1,0x4(%esi)
  404855:	74 18                	je     0x40486f
  404857:	53                   	push   %ebx
  404858:	ff 15 10 70 40 00    	call   *0x407010
  40485e:	8b 5c 24 10          	mov    0x10(%esp),%ebx
  404862:	8b 45 00             	mov    0x0(%ebp),%eax
  404865:	83 c6 24             	add    $0x24,%esi
  404868:	05 80 04 00 00       	add    $0x480,%eax
  40486d:	eb a5                	jmp    0x404814
  40486f:	83 0e ff             	orl    $0xffffffff,(%esi)
  404872:	8b c6                	mov    %esi,%eax
  404874:	2b 45 00             	sub    0x0(%ebp),%eax
  404877:	6a 24                	push   $0x24
  404879:	59                   	pop    %ecx
  40487a:	99                   	cltd   
  40487b:	f7 f9                	idiv   %ecx
  40487d:	8b f8                	mov    %eax,%edi
  40487f:	03 7c 24 14          	add    0x14(%esp),%edi
  404883:	83 ff ff             	cmp    $0xffffffff,%edi
  404886:	75 6d                	jne    0x4048f5
  404888:	8b 5c 24 10          	mov    0x10(%esp),%ebx
  40488c:	83 44 24 14 20       	addl   $0x20,0x14(%esp)
  404891:	83 c5 04             	add    $0x4,%ebp
  404894:	43                   	inc    %ebx
  404895:	81 fd 20 94 40 00    	cmp    $0x409420,%ebp
  40489b:	89 5c 24 10          	mov    %ebx,0x10(%esp)
  40489f:	0f 8c 5e ff ff ff    	jl     0x404803
  4048a5:	eb 4e                	jmp    0x4048f5
  4048a7:	be 80 04 00 00       	mov    $0x480,%esi
  4048ac:	56                   	push   %esi
  4048ad:	e8 fb f3 ff ff       	call   0x403cad
  4048b2:	85 c0                	test   %eax,%eax
  4048b4:	59                   	pop    %ecx
  4048b5:	74 3e                	je     0x4048f5
  4048b7:	83 05 20 94 40 00 20 	addl   $0x20,0x409420
  4048be:	8d 0c 9d 20 93 40 00 	lea    0x409320(,%ebx,4),%ecx
  4048c5:	8d 90 80 04 00 00    	lea    0x480(%eax),%edx
  4048cb:	89 01                	mov    %eax,(%ecx)
  4048cd:	3b c2                	cmp    %edx,%eax
  4048cf:	73 18                	jae    0x4048e9
  4048d1:	80 60 04 00          	andb   $0x0,0x4(%eax)
  4048d5:	83 08 ff             	orl    $0xffffffff,(%eax)
  4048d8:	83 60 08 00          	andl   $0x0,0x8(%eax)
  4048dc:	c6 40 05 0a          	movb   $0xa,0x5(%eax)
  4048e0:	8b 11                	mov    (%ecx),%edx
  4048e2:	83 c0 24             	add    $0x24,%eax
  4048e5:	03 d6                	add    %esi,%edx
  4048e7:	eb e4                	jmp    0x4048cd
  4048e9:	c1 e3 05             	shl    $0x5,%ebx
  4048ec:	8b fb                	mov    %ebx,%edi
  4048ee:	57                   	push   %edi
  4048ef:	e8 4f 01 00 00       	call   0x404a43
  4048f4:	59                   	pop    %ecx
  4048f5:	6a 12                	push   $0x12
  4048f7:	e8 9c f3 ff ff       	call   0x403c98
  4048fc:	59                   	pop    %ecx
  4048fd:	8b c7                	mov    %edi,%eax
  4048ff:	5f                   	pop    %edi
  404900:	5e                   	pop    %esi
  404901:	5d                   	pop    %ebp
  404902:	5b                   	pop    %ebx
  404903:	59                   	pop    %ecx
  404904:	59                   	pop    %ecx
  404905:	c3                   	ret    
  404906:	8b 4c 24 04          	mov    0x4(%esp),%ecx
  40490a:	56                   	push   %esi
  40490b:	3b 0d 20 94 40 00    	cmp    0x409420,%ecx
  404911:	57                   	push   %edi
  404912:	73 55                	jae    0x404969
  404914:	8b c1                	mov    %ecx,%eax
  404916:	c1 f8 05             	sar    $0x5,%eax
  404919:	8d 3c 85 20 93 40 00 	lea    0x409320(,%eax,4),%edi
  404920:	8b c1                	mov    %ecx,%eax
  404922:	83 e0 1f             	and    $0x1f,%eax
  404925:	8d 34 c0             	lea    (%eax,%eax,8),%esi
  404928:	8b 07                	mov    (%edi),%eax
  40492a:	c1 e6 02             	shl    $0x2,%esi
  40492d:	83 3c 30 ff          	cmpl   $0xffffffff,(%eax,%esi,1)
  404931:	75 36                	jne    0x404969
  404933:	83 3d d4 80 40 00 01 	cmpl   $0x1,0x4080d4
  40493a:	53                   	push   %ebx
  40493b:	8b 5c 24 14          	mov    0x14(%esp),%ebx
  40493f:	75 1e                	jne    0x40495f
  404941:	83 e9 00             	sub    $0x0,%ecx
  404944:	74 10                	je     0x404956
  404946:	49                   	dec    %ecx
  404947:	74 08                	je     0x404951
  404949:	49                   	dec    %ecx
  40494a:	75 13                	jne    0x40495f
  40494c:	53                   	push   %ebx
  40494d:	6a f4                	push   $0xfffffff4
  40494f:	eb 08                	jmp    0x404959
  404951:	53                   	push   %ebx
  404952:	6a f5                	push   $0xfffffff5
  404954:	eb 03                	jmp    0x404959
  404956:	53                   	push   %ebx
  404957:	6a f6                	push   $0xfffffff6
  404959:	ff 15 9c 70 40 00    	call   *0x40709c
  40495f:	8b 07                	mov    (%edi),%eax
  404961:	89 1c 30             	mov    %ebx,(%eax,%esi,1)
  404964:	33 c0                	xor    %eax,%eax
  404966:	5b                   	pop    %ebx
  404967:	eb 16                	jmp    0x40497f
  404969:	e8 63 fe ff ff       	call   0x4047d1
  40496e:	c7 00 09 00 00 00    	movl   $0x9,(%eax)
  404974:	e8 61 fe ff ff       	call   0x4047da
  404979:	83 20 00             	andl   $0x0,(%eax)
  40497c:	83 c8 ff             	or     $0xffffffff,%eax
  40497f:	5f                   	pop    %edi
  404980:	5e                   	pop    %esi
  404981:	c3                   	ret    
  404982:	8b 4c 24 04          	mov    0x4(%esp),%ecx
  404986:	56                   	push   %esi
  404987:	3b 0d 20 94 40 00    	cmp    0x409420,%ecx
  40498d:	57                   	push   %edi
  40498e:	73 58                	jae    0x4049e8
  404990:	8b c1                	mov    %ecx,%eax
  404992:	c1 f8 05             	sar    $0x5,%eax
  404995:	8d 3c 85 20 93 40 00 	lea    0x409320(,%eax,4),%edi
  40499c:	8b c1                	mov    %ecx,%eax
  40499e:	83 e0 1f             	and    $0x1f,%eax
  4049a1:	8d 34 c0             	lea    (%eax,%eax,8),%esi
  4049a4:	8b 07                	mov    (%edi),%eax
  4049a6:	c1 e6 02             	shl    $0x2,%esi
  4049a9:	03 c6                	add    %esi,%eax
  4049ab:	f6 40 04 01          	testb  $0x1,0x4(%eax)
  4049af:	74 37                	je     0x4049e8
  4049b1:	83 38 ff             	cmpl   $0xffffffff,(%eax)
  4049b4:	74 32                	je     0x4049e8
  4049b6:	83 3d d4 80 40 00 01 	cmpl   $0x1,0x4080d4
  4049bd:	75 1f                	jne    0x4049de
  4049bf:	33 c0                	xor    %eax,%eax
  4049c1:	2b c8                	sub    %eax,%ecx
  4049c3:	74 10                	je     0x4049d5
  4049c5:	49                   	dec    %ecx
  4049c6:	74 08                	je     0x4049d0
  4049c8:	49                   	dec    %ecx
  4049c9:	75 13                	jne    0x4049de
  4049cb:	50                   	push   %eax
  4049cc:	6a f4                	push   $0xfffffff4
  4049ce:	eb 08                	jmp    0x4049d8
  4049d0:	50                   	push   %eax
  4049d1:	6a f5                	push   $0xfffffff5
  4049d3:	eb 03                	jmp    0x4049d8
  4049d5:	50                   	push   %eax
  4049d6:	6a f6                	push   $0xfffffff6
  4049d8:	ff 15 9c 70 40 00    	call   *0x40709c
  4049de:	8b 07                	mov    (%edi),%eax
  4049e0:	83 0c 30 ff          	orl    $0xffffffff,(%eax,%esi,1)
  4049e4:	33 c0                	xor    %eax,%eax
  4049e6:	eb 16                	jmp    0x4049fe
  4049e8:	e8 e4 fd ff ff       	call   0x4047d1
  4049ed:	c7 00 09 00 00 00    	movl   $0x9,(%eax)
  4049f3:	e8 e2 fd ff ff       	call   0x4047da
  4049f8:	83 20 00             	andl   $0x0,(%eax)
  4049fb:	83 c8 ff             	or     $0xffffffff,%eax
  4049fe:	5f                   	pop    %edi
  4049ff:	5e                   	pop    %esi
  404a00:	c3                   	ret    
  404a01:	8b 44 24 04          	mov    0x4(%esp),%eax
  404a05:	3b 05 20 94 40 00    	cmp    0x409420,%eax
  404a0b:	73 1f                	jae    0x404a2c
  404a0d:	8b c8                	mov    %eax,%ecx
  404a0f:	83 e0 1f             	and    $0x1f,%eax
  404a12:	c1 f9 05             	sar    $0x5,%ecx
  404a15:	8d 04 c0             	lea    (%eax,%eax,8),%eax
  404a18:	8b 0c 8d 20 93 40 00 	mov    0x409320(,%ecx,4),%ecx
  404a1f:	f6 44 81 04 01       	testb  $0x1,0x4(%ecx,%eax,4)
  404a24:	8d 04 81             	lea    (%ecx,%eax,4),%eax
  404a27:	74 03                	je     0x404a2c
  404a29:	8b 00                	mov    (%eax),%eax
  404a2b:	c3                   	ret    
  404a2c:	e8 a0 fd ff ff       	call   0x4047d1
  404a31:	c7 00 09 00 00 00    	movl   $0x9,(%eax)
  404a37:	e8 9e fd ff ff       	call   0x4047da
  404a3c:	83 20 00             	andl   $0x0,(%eax)
  404a3f:	83 c8 ff             	or     $0xffffffff,%eax
  404a42:	c3                   	ret    
  404a43:	8b 44 24 04          	mov    0x4(%esp),%eax
  404a47:	53                   	push   %ebx
  404a48:	8b c8                	mov    %eax,%ecx
  404a4a:	83 e0 1f             	and    $0x1f,%eax
  404a4d:	c1 f9 05             	sar    $0x5,%ecx
  404a50:	56                   	push   %esi
  404a51:	57                   	push   %edi
  404a52:	8b 34 8d 20 93 40 00 	mov    0x409320(,%ecx,4),%esi
  404a59:	8d 1c 8d 20 93 40 00 	lea    0x409320(,%ecx,4),%ebx
  404a60:	8d 3c c0             	lea    (%eax,%eax,8),%edi
  404a63:	c1 e7 02             	shl    $0x2,%edi
  404a66:	03 f7                	add    %edi,%esi
  404a68:	83 7e 08 00          	cmpl   $0x0,0x8(%esi)
  404a6c:	75 23                	jne    0x404a91
  404a6e:	6a 11                	push   $0x11
  404a70:	e8 c2 f1 ff ff       	call   0x403c37
  404a75:	83 7e 08 00          	cmpl   $0x0,0x8(%esi)
  404a79:	59                   	pop    %ecx
  404a7a:	75 0d                	jne    0x404a89
  404a7c:	8d 46 0c             	lea    0xc(%esi),%eax
  404a7f:	50                   	push   %eax
  404a80:	ff 15 24 70 40 00    	call   *0x407024
  404a86:	ff 46 08             	incl   0x8(%esi)
  404a89:	6a 11                	push   $0x11
  404a8b:	e8 08 f2 ff ff       	call   0x403c98
  404a90:	59                   	pop    %ecx
  404a91:	8b 03                	mov    (%ebx),%eax
  404a93:	8d 44 38 0c          	lea    0xc(%eax,%edi,1),%eax
  404a97:	50                   	push   %eax
  404a98:	ff 15 0c 70 40 00    	call   *0x40700c
  404a9e:	5f                   	pop    %edi
  404a9f:	5e                   	pop    %esi
  404aa0:	5b                   	pop    %ebx
  404aa1:	c3                   	ret    
  404aa2:	8b 44 24 04          	mov    0x4(%esp),%eax
  404aa6:	8b c8                	mov    %eax,%ecx
  404aa8:	83 e0 1f             	and    $0x1f,%eax
  404aab:	c1 f9 05             	sar    $0x5,%ecx
  404aae:	8d 04 c0             	lea    (%eax,%eax,8),%eax
  404ab1:	8b 0c 8d 20 93 40 00 	mov    0x409320(,%ecx,4),%ecx
  404ab8:	8d 44 81 0c          	lea    0xc(%ecx,%eax,4),%eax
  404abc:	50                   	push   %eax
  404abd:	ff 15 10 70 40 00    	call   *0x407010
  404ac3:	c3                   	ret    
  404ac4:	53                   	push   %ebx
  404ac5:	8b 5c 24 08          	mov    0x8(%esp),%ebx
  404ac9:	3b 1d 20 94 40 00    	cmp    0x409420,%ebx
  404acf:	56                   	push   %esi
  404ad0:	57                   	push   %edi
  404ad1:	73 72                	jae    0x404b45
  404ad3:	8b c3                	mov    %ebx,%eax
  404ad5:	c1 f8 05             	sar    $0x5,%eax
  404ad8:	8d 3c 85 20 93 40 00 	lea    0x409320(,%eax,4),%edi
  404adf:	8b c3                	mov    %ebx,%eax
  404ae1:	83 e0 1f             	and    $0x1f,%eax
  404ae4:	8d 34 c0             	lea    (%eax,%eax,8),%esi
  404ae7:	8b 07                	mov    (%edi),%eax
  404ae9:	c1 e6 02             	shl    $0x2,%esi
  404aec:	f6 44 30 04 01       	testb  $0x1,0x4(%eax,%esi,1)
  404af1:	74 52                	je     0x404b45
  404af3:	53                   	push   %ebx
  404af4:	e8 4a ff ff ff       	call   0x404a43
  404af9:	8b 07                	mov    (%edi),%eax
  404afb:	59                   	pop    %ecx
  404afc:	f6 44 30 04 01       	testb  $0x1,0x4(%eax,%esi,1)
  404b01:	74 29                	je     0x404b2c
  404b03:	53                   	push   %ebx
  404b04:	e8 f8 fe ff ff       	call   0x404a01
  404b09:	59                   	pop    %ecx
  404b0a:	50                   	push   %eax
  404b0b:	ff 15 a0 70 40 00    	call   *0x4070a0
  404b11:	85 c0                	test   %eax,%eax
  404b13:	75 0a                	jne    0x404b1f
  404b15:	ff 15 18 70 40 00    	call   *0x407018
  404b1b:	8b f0                	mov    %eax,%esi
  404b1d:	eb 02                	jmp    0x404b21
  404b1f:	33 f6                	xor    %esi,%esi
  404b21:	85 f6                	test   %esi,%esi
  404b23:	74 15                	je     0x404b3a
  404b25:	e8 b0 fc ff ff       	call   0x4047da
  404b2a:	89 30                	mov    %esi,(%eax)
  404b2c:	e8 a0 fc ff ff       	call   0x4047d1
  404b31:	c7 00 09 00 00 00    	movl   $0x9,(%eax)
  404b37:	83 ce ff             	or     $0xffffffff,%esi
  404b3a:	53                   	push   %ebx
  404b3b:	e8 62 ff ff ff       	call   0x404aa2
  404b40:	59                   	pop    %ecx
  404b41:	8b c6                	mov    %esi,%eax
  404b43:	eb 0e                	jmp    0x404b53
  404b45:	e8 87 fc ff ff       	call   0x4047d1
  404b4a:	c7 00 09 00 00 00    	movl   $0x9,(%eax)
  404b50:	83 c8 ff             	or     $0xffffffff,%eax
  404b53:	5f                   	pop    %edi
  404b54:	5e                   	pop    %esi
  404b55:	5b                   	pop    %ebx
  404b56:	c3                   	ret    
  404b57:	56                   	push   %esi
  404b58:	8b 74 24 08          	mov    0x8(%esp),%esi
  404b5c:	3b 35 20 94 40 00    	cmp    0x409420,%esi
  404b62:	73 40                	jae    0x404ba4
  404b64:	8b ce                	mov    %esi,%ecx
  404b66:	8b c6                	mov    %esi,%eax
  404b68:	c1 f9 05             	sar    $0x5,%ecx
  404b6b:	83 e0 1f             	and    $0x1f,%eax
  404b6e:	8b 0c 8d 20 93 40 00 	mov    0x409320(,%ecx,4),%ecx
  404b75:	8d 04 c0             	lea    (%eax,%eax,8),%eax
  404b78:	f6 44 81 04 01       	testb  $0x1,0x4(%ecx,%eax,4)
  404b7d:	74 25                	je     0x404ba4
  404b7f:	57                   	push   %edi
  404b80:	56                   	push   %esi
  404b81:	e8 bd fe ff ff       	call   0x404a43
  404b86:	ff 74 24 18          	pushl  0x18(%esp)
  404b8a:	ff 74 24 18          	pushl  0x18(%esp)
  404b8e:	56                   	push   %esi
  404b8f:	e8 28 00 00 00       	call   0x404bbc
  404b94:	56                   	push   %esi
  404b95:	8b f8                	mov    %eax,%edi
  404b97:	e8 06 ff ff ff       	call   0x404aa2
  404b9c:	83 c4 14             	add    $0x14,%esp
  404b9f:	8b c7                	mov    %edi,%eax
  404ba1:	5f                   	pop    %edi
  404ba2:	5e                   	pop    %esi
  404ba3:	c3                   	ret    
  404ba4:	e8 28 fc ff ff       	call   0x4047d1
  404ba9:	c7 00 09 00 00 00    	movl   $0x9,(%eax)
  404baf:	e8 26 fc ff ff       	call   0x4047da
  404bb4:	83 20 00             	andl   $0x0,(%eax)
  404bb7:	83 c8 ff             	or     $0xffffffff,%eax
  404bba:	5e                   	pop    %esi
  404bbb:	c3                   	ret    
  404bbc:	55                   	push   %ebp
  404bbd:	8b ec                	mov    %esp,%ebp
  404bbf:	81 ec 14 04 00 00    	sub    $0x414,%esp
  404bc5:	53                   	push   %ebx
  404bc6:	56                   	push   %esi
  404bc7:	57                   	push   %edi
  404bc8:	33 ff                	xor    %edi,%edi
  404bca:	39 7d 10             	cmp    %edi,0x10(%ebp)
  404bcd:	89 7d f8             	mov    %edi,-0x8(%ebp)
  404bd0:	89 7d f0             	mov    %edi,-0x10(%ebp)
  404bd3:	75 07                	jne    0x404bdc
  404bd5:	33 c0                	xor    %eax,%eax
  404bd7:	e9 66 01 00 00       	jmp    0x404d42
  404bdc:	8b 45 08             	mov    0x8(%ebp),%eax
  404bdf:	c1 f8 05             	sar    $0x5,%eax
  404be2:	8d 1c 85 20 93 40 00 	lea    0x409320(,%eax,4),%ebx
  404be9:	8b 45 08             	mov    0x8(%ebp),%eax
  404bec:	83 e0 1f             	and    $0x1f,%eax
  404bef:	8d 34 c0             	lea    (%eax,%eax,8),%esi
  404bf2:	8b 03                	mov    (%ebx),%eax
  404bf4:	c1 e6 02             	shl    $0x2,%esi
  404bf7:	f6 44 30 04 20       	testb  $0x20,0x4(%eax,%esi,1)
  404bfc:	74 0e                	je     0x404c0c
  404bfe:	6a 02                	push   $0x2
  404c00:	57                   	push   %edi
  404c01:	ff 75 08             	pushl  0x8(%ebp)
  404c04:	e8 e7 01 00 00       	call   0x404df0
  404c09:	83 c4 0c             	add    $0xc,%esp
  404c0c:	8b 03                	mov    (%ebx),%eax
  404c0e:	03 c6                	add    %esi,%eax
  404c10:	f6 40 04 80          	testb  $0x80,0x4(%eax)
  404c14:	0f 84 c1 00 00 00    	je     0x404cdb
  404c1a:	8b 45 0c             	mov    0xc(%ebp),%eax
  404c1d:	39 7d 10             	cmp    %edi,0x10(%ebp)
  404c20:	89 45 fc             	mov    %eax,-0x4(%ebp)
  404c23:	89 7d 08             	mov    %edi,0x8(%ebp)
  404c26:	0f 86 ea 00 00 00    	jbe    0x404d16
  404c2c:	8d 85 ec fb ff ff    	lea    -0x414(%ebp),%eax
  404c32:	8b 4d fc             	mov    -0x4(%ebp),%ecx
  404c35:	2b 4d 0c             	sub    0xc(%ebp),%ecx
  404c38:	3b 4d 10             	cmp    0x10(%ebp),%ecx
  404c3b:	73 29                	jae    0x404c66
  404c3d:	8b 4d fc             	mov    -0x4(%ebp),%ecx
  404c40:	ff 45 fc             	incl   -0x4(%ebp)
  404c43:	8a 09                	mov    (%ecx),%cl
  404c45:	80 f9 0a             	cmp    $0xa,%cl
  404c48:	75 07                	jne    0x404c51
  404c4a:	ff 45 f0             	incl   -0x10(%ebp)
  404c4d:	c6 00 0d             	movb   $0xd,(%eax)
  404c50:	40                   	inc    %eax
  404c51:	88 08                	mov    %cl,(%eax)
  404c53:	40                   	inc    %eax
  404c54:	8b c8                	mov    %eax,%ecx
  404c56:	8d 95 ec fb ff ff    	lea    -0x414(%ebp),%edx
  404c5c:	2b ca                	sub    %edx,%ecx
  404c5e:	81 f9 00 04 00 00    	cmp    $0x400,%ecx
  404c64:	7c cc                	jl     0x404c32
  404c66:	8b f8                	mov    %eax,%edi
  404c68:	8d 85 ec fb ff ff    	lea    -0x414(%ebp),%eax
  404c6e:	2b f8                	sub    %eax,%edi
  404c70:	8d 45 f4             	lea    -0xc(%ebp),%eax
  404c73:	6a 00                	push   $0x0
  404c75:	50                   	push   %eax
  404c76:	8d 85 ec fb ff ff    	lea    -0x414(%ebp),%eax
  404c7c:	57                   	push   %edi
  404c7d:	50                   	push   %eax
  404c7e:	8b 03                	mov    (%ebx),%eax
  404c80:	ff 34 30             	pushl  (%eax,%esi,1)
  404c83:	ff 15 84 70 40 00    	call   *0x407084
  404c89:	85 c0                	test   %eax,%eax
  404c8b:	74 43                	je     0x404cd0
  404c8d:	8b 45 f4             	mov    -0xc(%ebp),%eax
  404c90:	01 45 f8             	add    %eax,-0x8(%ebp)
  404c93:	3b c7                	cmp    %edi,%eax
  404c95:	7c 0b                	jl     0x404ca2
  404c97:	8b 45 fc             	mov    -0x4(%ebp),%eax
  404c9a:	2b 45 0c             	sub    0xc(%ebp),%eax
  404c9d:	3b 45 10             	cmp    0x10(%ebp),%eax
  404ca0:	72 8a                	jb     0x404c2c
  404ca2:	33 ff                	xor    %edi,%edi
  404ca4:	8b 45 f8             	mov    -0x8(%ebp),%eax
  404ca7:	3b c7                	cmp    %edi,%eax
  404ca9:	0f 85 90 00 00 00    	jne    0x404d3f
  404caf:	39 7d 08             	cmp    %edi,0x8(%ebp)
  404cb2:	74 62                	je     0x404d16
  404cb4:	6a 05                	push   $0x5
  404cb6:	5e                   	pop    %esi
  404cb7:	39 75 08             	cmp    %esi,0x8(%ebp)
  404cba:	75 4c                	jne    0x404d08
  404cbc:	e8 10 fb ff ff       	call   0x4047d1
  404cc1:	c7 00 09 00 00 00    	movl   $0x9,(%eax)
  404cc7:	e8 0e fb ff ff       	call   0x4047da
  404ccc:	89 30                	mov    %esi,(%eax)
  404cce:	eb 41                	jmp    0x404d11
  404cd0:	ff 15 18 70 40 00    	call   *0x407018
  404cd6:	89 45 08             	mov    %eax,0x8(%ebp)
  404cd9:	eb c7                	jmp    0x404ca2
  404cdb:	8d 4d f4             	lea    -0xc(%ebp),%ecx
  404cde:	57                   	push   %edi
  404cdf:	51                   	push   %ecx
  404ce0:	ff 75 10             	pushl  0x10(%ebp)
  404ce3:	ff 75 0c             	pushl  0xc(%ebp)
  404ce6:	ff 30                	pushl  (%eax)
  404ce8:	ff 15 84 70 40 00    	call   *0x407084
  404cee:	85 c0                	test   %eax,%eax
  404cf0:	74 0b                	je     0x404cfd
  404cf2:	8b 45 f4             	mov    -0xc(%ebp),%eax
  404cf5:	89 7d 08             	mov    %edi,0x8(%ebp)
  404cf8:	89 45 f8             	mov    %eax,-0x8(%ebp)
  404cfb:	eb a7                	jmp    0x404ca4
  404cfd:	ff 15 18 70 40 00    	call   *0x407018
  404d03:	89 45 08             	mov    %eax,0x8(%ebp)
  404d06:	eb 9c                	jmp    0x404ca4
  404d08:	ff 75 08             	pushl  0x8(%ebp)
  404d0b:	e8 4e fa ff ff       	call   0x40475e
  404d10:	59                   	pop    %ecx
  404d11:	83 c8 ff             	or     $0xffffffff,%eax
  404d14:	eb 2c                	jmp    0x404d42
  404d16:	8b 03                	mov    (%ebx),%eax
  404d18:	f6 44 30 04 40       	testb  $0x40,0x4(%eax,%esi,1)
  404d1d:	74 0c                	je     0x404d2b
  404d1f:	8b 45 0c             	mov    0xc(%ebp),%eax
  404d22:	80 38 1a             	cmpb   $0x1a,(%eax)
  404d25:	0f 84 aa fe ff ff    	je     0x404bd5
  404d2b:	e8 a1 fa ff ff       	call   0x4047d1
  404d30:	c7 00 1c 00 00 00    	movl   $0x1c,(%eax)
  404d36:	e8 9f fa ff ff       	call   0x4047da
  404d3b:	89 38                	mov    %edi,(%eax)
  404d3d:	eb d2                	jmp    0x404d11
  404d3f:	2b 45 f0             	sub    -0x10(%ebp),%eax
  404d42:	5f                   	pop    %edi
  404d43:	5e                   	pop    %esi
  404d44:	5b                   	pop    %ebx
  404d45:	c9                   	leave  
  404d46:	c3                   	ret    
  404d47:	ff 05 6c 8d 40 00    	incl   0x408d6c
  404d4d:	68 00 10 00 00       	push   $0x1000
  404d52:	e8 56 ef ff ff       	call   0x403cad
  404d57:	59                   	pop    %ecx
  404d58:	8b 4c 24 04          	mov    0x4(%esp),%ecx
  404d5c:	85 c0                	test   %eax,%eax
  404d5e:	89 41 08             	mov    %eax,0x8(%ecx)
  404d61:	74 0d                	je     0x404d70
  404d63:	83 49 0c 08          	orl    $0x8,0xc(%ecx)
  404d67:	c7 41 18 00 10 00 00 	movl   $0x1000,0x18(%ecx)
  404d6e:	eb 11                	jmp    0x404d81
  404d70:	83 49 0c 04          	orl    $0x4,0xc(%ecx)
  404d74:	8d 41 14             	lea    0x14(%ecx),%eax
  404d77:	89 41 08             	mov    %eax,0x8(%ecx)
  404d7a:	c7 41 18 02 00 00 00 	movl   $0x2,0x18(%ecx)
  404d81:	8b 41 08             	mov    0x8(%ecx),%eax
  404d84:	83 61 04 00          	andl   $0x0,0x4(%ecx)
  404d88:	89 01                	mov    %eax,(%ecx)
  404d8a:	c3                   	ret    
  404d8b:	56                   	push   %esi
  404d8c:	8b 74 24 08          	mov    0x8(%esp),%esi
  404d90:	3b 35 20 94 40 00    	cmp    0x409420,%esi
  404d96:	73 40                	jae    0x404dd8
  404d98:	8b ce                	mov    %esi,%ecx
  404d9a:	8b c6                	mov    %esi,%eax
  404d9c:	c1 f9 05             	sar    $0x5,%ecx
  404d9f:	83 e0 1f             	and    $0x1f,%eax
  404da2:	8b 0c 8d 20 93 40 00 	mov    0x409320(,%ecx,4),%ecx
  404da9:	8d 04 c0             	lea    (%eax,%eax,8),%eax
  404dac:	f6 44 81 04 01       	testb  $0x1,0x4(%ecx,%eax,4)
  404db1:	74 25                	je     0x404dd8
  404db3:	57                   	push   %edi
  404db4:	56                   	push   %esi
  404db5:	e8 89 fc ff ff       	call   0x404a43
  404dba:	ff 74 24 18          	pushl  0x18(%esp)
  404dbe:	ff 74 24 18          	pushl  0x18(%esp)
  404dc2:	56                   	push   %esi
  404dc3:	e8 28 00 00 00       	call   0x404df0
  404dc8:	56                   	push   %esi
  404dc9:	8b f8                	mov    %eax,%edi
  404dcb:	e8 d2 fc ff ff       	call   0x404aa2
  404dd0:	83 c4 14             	add    $0x14,%esp
  404dd3:	8b c7                	mov    %edi,%eax
  404dd5:	5f                   	pop    %edi
  404dd6:	5e                   	pop    %esi
  404dd7:	c3                   	ret    
  404dd8:	e8 f4 f9 ff ff       	call   0x4047d1
  404ddd:	c7 00 09 00 00 00    	movl   $0x9,(%eax)
  404de3:	e8 f2 f9 ff ff       	call   0x4047da
  404de8:	83 20 00             	andl   $0x0,(%eax)
  404deb:	83 c8 ff             	or     $0xffffffff,%eax
  404dee:	5e                   	pop    %esi
  404def:	c3                   	ret    
  404df0:	56                   	push   %esi
  404df1:	8b 74 24 08          	mov    0x8(%esp),%esi
  404df5:	57                   	push   %edi
  404df6:	56                   	push   %esi
  404df7:	e8 05 fc ff ff       	call   0x404a01
  404dfc:	83 f8 ff             	cmp    $0xffffffff,%eax
  404dff:	59                   	pop    %ecx
  404e00:	75 0d                	jne    0x404e0f
  404e02:	e8 ca f9 ff ff       	call   0x4047d1
  404e07:	c7 00 09 00 00 00    	movl   $0x9,(%eax)
  404e0d:	eb 2d                	jmp    0x404e3c
  404e0f:	ff 74 24 14          	pushl  0x14(%esp)
  404e13:	6a 00                	push   $0x0
  404e15:	ff 74 24 18          	pushl  0x18(%esp)
  404e19:	50                   	push   %eax
  404e1a:	ff 15 a4 70 40 00    	call   *0x4070a4
  404e20:	8b f8                	mov    %eax,%edi
  404e22:	83 ff ff             	cmp    $0xffffffff,%edi
  404e25:	75 08                	jne    0x404e2f
  404e27:	ff 15 18 70 40 00    	call   *0x407018
  404e2d:	eb 02                	jmp    0x404e31
  404e2f:	33 c0                	xor    %eax,%eax
  404e31:	85 c0                	test   %eax,%eax
  404e33:	74 0c                	je     0x404e41
  404e35:	50                   	push   %eax
  404e36:	e8 23 f9 ff ff       	call   0x40475e
  404e3b:	59                   	pop    %ecx
  404e3c:	83 c8 ff             	or     $0xffffffff,%eax
  404e3f:	eb 1f                	jmp    0x404e60
  404e41:	8b ce                	mov    %esi,%ecx
  404e43:	83 e6 1f             	and    $0x1f,%esi
  404e46:	c1 f9 05             	sar    $0x5,%ecx
  404e49:	8b c6                	mov    %esi,%eax
  404e4b:	8b 0c 8d 20 93 40 00 	mov    0x409320(,%ecx,4),%ecx
  404e52:	8d 04 c0             	lea    (%eax,%eax,8),%eax
  404e55:	80 64 81 04 fd       	andb   $0xfd,0x4(%ecx,%eax,4)
  404e5a:	8d 44 81 04          	lea    0x4(%ecx,%eax,4),%eax
  404e5e:	8b c7                	mov    %edi,%eax
  404e60:	5f                   	pop    %edi
  404e61:	5e                   	pop    %esi
  404e62:	c3                   	ret    
  404e63:	55                   	push   %ebp
  404e64:	8b ec                	mov    %esp,%ebp
  404e66:	83 ec 1c             	sub    $0x1c,%esp
  404e69:	8b 4d 0c             	mov    0xc(%ebp),%ecx
  404e6c:	53                   	push   %ebx
  404e6d:	33 db                	xor    %ebx,%ebx
  404e6f:	56                   	push   %esi
  404e70:	f6 c1 80             	test   $0x80,%cl
  404e73:	57                   	push   %edi
  404e74:	c7 45 e4 0c 00 00 00 	movl   $0xc,-0x1c(%ebp)
  404e7b:	89 5d e8             	mov    %ebx,-0x18(%ebp)
  404e7e:	74 09                	je     0x404e89
  404e80:	89 5d ec             	mov    %ebx,-0x14(%ebp)
  404e83:	c6 45 ff 10          	movb   $0x10,-0x1(%ebp)
  404e87:	eb 0b                	jmp    0x404e94
  404e89:	80 65 ff 00          	andb   $0x0,-0x1(%ebp)
  404e8d:	c7 45 ec 01 00 00 00 	movl   $0x1,-0x14(%ebp)
  404e94:	b8 00 80 00 00       	mov    $0x8000,%eax
  404e99:	85 c8                	test   %ecx,%eax
  404e9b:	75 11                	jne    0x404eae
  404e9d:	f6 c5 40             	test   $0x40,%ch
  404ea0:	75 08                	jne    0x404eaa
  404ea2:	39 05 70 8f 40 00    	cmp    %eax,0x408f70
  404ea8:	74 04                	je     0x404eae
  404eaa:	80 4d ff 80          	orb    $0x80,-0x1(%ebp)
  404eae:	6a 03                	push   $0x3
  404eb0:	8b c1                	mov    %ecx,%eax
  404eb2:	5e                   	pop    %esi
  404eb3:	23 c6                	and    %esi,%eax
  404eb5:	2b c3                	sub    %ebx,%eax
  404eb7:	74 1c                	je     0x404ed5
  404eb9:	48                   	dec    %eax
  404eba:	74 10                	je     0x404ecc
  404ebc:	48                   	dec    %eax
  404ebd:	0f 85 a4 00 00 00    	jne    0x404f67
  404ec3:	c7 45 f4 00 00 00 c0 	movl   $0xc0000000,-0xc(%ebp)
  404eca:	eb 10                	jmp    0x404edc
  404ecc:	c7 45 f4 00 00 00 40 	movl   $0x40000000,-0xc(%ebp)
  404ed3:	eb 07                	jmp    0x404edc
  404ed5:	c7 45 f4 00 00 00 80 	movl   $0x80000000,-0xc(%ebp)
  404edc:	8b 45 10             	mov    0x10(%ebp),%eax
  404edf:	83 f8 10             	cmp    $0x10,%eax
  404ee2:	74 26                	je     0x404f0a
  404ee4:	83 f8 20             	cmp    $0x20,%eax
  404ee7:	74 18                	je     0x404f01
  404ee9:	83 f8 30             	cmp    $0x30,%eax
  404eec:	74 0a                	je     0x404ef8
  404eee:	83 f8 40             	cmp    $0x40,%eax
  404ef1:	75 74                	jne    0x404f67
  404ef3:	89 75 f0             	mov    %esi,-0x10(%ebp)
  404ef6:	eb 15                	jmp    0x404f0d
  404ef8:	c7 45 f0 02 00 00 00 	movl   $0x2,-0x10(%ebp)
  404eff:	eb 0c                	jmp    0x404f0d
  404f01:	c7 45 f0 01 00 00 00 	movl   $0x1,-0x10(%ebp)
  404f08:	eb 03                	jmp    0x404f0d
  404f0a:	89 5d f0             	mov    %ebx,-0x10(%ebp)
  404f0d:	ba 00 07 00 00       	mov    $0x700,%edx
  404f12:	b8 00 04 00 00       	mov    $0x400,%eax
  404f17:	23 ca                	and    %edx,%ecx
  404f19:	bf 00 01 00 00       	mov    $0x100,%edi
  404f1e:	3b c8                	cmp    %eax,%ecx
  404f20:	7f 31                	jg     0x404f53
  404f22:	74 2a                	je     0x404f4e
  404f24:	3b cb                	cmp    %ebx,%ecx
  404f26:	74 26                	je     0x404f4e
  404f28:	3b cf                	cmp    %edi,%ecx
  404f2a:	74 19                	je     0x404f45
  404f2c:	81 f9 00 02 00 00    	cmp    $0x200,%ecx
  404f32:	74 4d                	je     0x404f81
  404f34:	81 f9 00 03 00 00    	cmp    $0x300,%ecx
  404f3a:	75 2b                	jne    0x404f67
  404f3c:	c7 45 f8 02 00 00 00 	movl   $0x2,-0x8(%ebp)
  404f43:	eb 4c                	jmp    0x404f91
  404f45:	c7 45 f8 04 00 00 00 	movl   $0x4,-0x8(%ebp)
  404f4c:	eb 43                	jmp    0x404f91
  404f4e:	89 75 f8             	mov    %esi,-0x8(%ebp)
  404f51:	eb 3e                	jmp    0x404f91
  404f53:	81 f9 00 05 00 00    	cmp    $0x500,%ecx
  404f59:	74 2f                	je     0x404f8a
  404f5b:	81 f9 00 06 00 00    	cmp    $0x600,%ecx
  404f61:	74 1e                	je     0x404f81
  404f63:	3b ca                	cmp    %edx,%ecx
  404f65:	74 23                	je     0x404f8a
  404f67:	e8 65 f8 ff ff       	call   0x4047d1
  404f6c:	c7 00 16 00 00 00    	movl   $0x16,(%eax)
  404f72:	e8 63 f8 ff ff       	call   0x4047da
  404f77:	89 18                	mov    %ebx,(%eax)
  404f79:	83 c8 ff             	or     $0xffffffff,%eax
  404f7c:	e9 ac 01 00 00       	jmp    0x40512d
  404f81:	c7 45 f8 05 00 00 00 	movl   $0x5,-0x8(%ebp)
  404f88:	eb 07                	jmp    0x404f91
  404f8a:	c7 45 f8 01 00 00 00 	movl   $0x1,-0x8(%ebp)
  404f91:	8b 45 0c             	mov    0xc(%ebp),%eax
  404f94:	be 80 00 00 00       	mov    $0x80,%esi
  404f99:	85 c7                	test   %eax,%edi
  404f9b:	74 13                	je     0x404fb0
  404f9d:	8b 0d 78 8d 40 00    	mov    0x408d78,%ecx
  404fa3:	f7 d1                	not    %ecx
  404fa5:	23 4d 14             	and    0x14(%ebp),%ecx
  404fa8:	f6 c1 80             	test   $0x80,%cl
  404fab:	75 03                	jne    0x404fb0
  404fad:	6a 01                	push   $0x1
  404faf:	5e                   	pop    %esi
  404fb0:	a8 40                	test   $0x40,%al
  404fb2:	74 0a                	je     0x404fbe
  404fb4:	81 ce 00 00 00 04    	or     $0x4000000,%esi
  404fba:	80 4d f6 01          	orb    $0x1,-0xa(%ebp)
  404fbe:	f6 c4 10             	test   $0x10,%ah
  404fc1:	74 02                	je     0x404fc5
  404fc3:	0b f7                	or     %edi,%esi
  404fc5:	a8 20                	test   $0x20,%al
  404fc7:	74 08                	je     0x404fd1
  404fc9:	81 ce 00 00 00 08    	or     $0x8000000,%esi
  404fcf:	eb 0a                	jmp    0x404fdb
  404fd1:	a8 10                	test   $0x10,%al
  404fd3:	74 06                	je     0x404fdb
  404fd5:	81 ce 00 00 00 10    	or     $0x10000000,%esi
  404fdb:	e8 03 f8 ff ff       	call   0x4047e3
  404fe0:	8b d8                	mov    %eax,%ebx
  404fe2:	83 cf ff             	or     $0xffffffff,%edi
  404fe5:	3b df                	cmp    %edi,%ebx
  404fe7:	75 1a                	jne    0x405003
  404fe9:	e8 e3 f7 ff ff       	call   0x4047d1
  404fee:	c7 00 18 00 00 00    	movl   $0x18,(%eax)
  404ff4:	e8 e1 f7 ff ff       	call   0x4047da
  404ff9:	83 20 00             	andl   $0x0,(%eax)
  404ffc:	8b c7                	mov    %edi,%eax
  404ffe:	e9 2a 01 00 00       	jmp    0x40512d
  405003:	6a 00                	push   $0x0
  405005:	56                   	push   %esi
  405006:	ff 75 f8             	pushl  -0x8(%ebp)
  405009:	8d 45 e4             	lea    -0x1c(%ebp),%eax
  40500c:	50                   	push   %eax
  40500d:	ff 75 f0             	pushl  -0x10(%ebp)
  405010:	ff 75 f4             	pushl  -0xc(%ebp)
  405013:	ff 75 08             	pushl  0x8(%ebp)
  405016:	ff 15 a8 70 40 00    	call   *0x4070a8
  40501c:	8b f0                	mov    %eax,%esi
  40501e:	3b f7                	cmp    %edi,%esi
  405020:	75 14                	jne    0x405036
  405022:	ff 15 18 70 40 00    	call   *0x407018
  405028:	50                   	push   %eax
  405029:	e8 30 f7 ff ff       	call   0x40475e
  40502e:	59                   	pop    %ecx
  40502f:	8b f7                	mov    %edi,%esi
  405031:	e9 ee 00 00 00       	jmp    0x405124
  405036:	56                   	push   %esi
  405037:	ff 15 54 70 40 00    	call   *0x407054
  40503d:	85 c0                	test   %eax,%eax
  40503f:	75 09                	jne    0x40504a
  405041:	56                   	push   %esi
  405042:	ff 15 1c 70 40 00    	call   *0x40701c
  405048:	eb d8                	jmp    0x405022
  40504a:	83 f8 02             	cmp    $0x2,%eax
  40504d:	75 06                	jne    0x405055
  40504f:	80 4d ff 40          	orb    $0x40,-0x1(%ebp)
  405053:	eb 09                	jmp    0x40505e
  405055:	83 f8 03             	cmp    $0x3,%eax
  405058:	75 04                	jne    0x40505e
  40505a:	80 4d ff 08          	orb    $0x8,-0x1(%ebp)
  40505e:	56                   	push   %esi
  40505f:	53                   	push   %ebx
  405060:	e8 a1 f8 ff ff       	call   0x404906
  405065:	8b c3                	mov    %ebx,%eax
  405067:	59                   	pop    %ecx
  405068:	c1 f8 05             	sar    $0x5,%eax
  40506b:	59                   	pop    %ecx
  40506c:	8a 4d ff             	mov    -0x1(%ebp),%cl
  40506f:	8d 3c 85 20 93 40 00 	lea    0x409320(,%eax,4),%edi
  405076:	8b c3                	mov    %ebx,%eax
  405078:	80 c9 01             	or     $0x1,%cl
  40507b:	83 e0 1f             	and    $0x1f,%eax
  40507e:	88 4d 0b             	mov    %cl,0xb(%ebp)
  405081:	8d 34 c0             	lea    (%eax,%eax,8),%esi
  405084:	8b 07                	mov    (%edi),%eax
  405086:	c1 e6 02             	shl    $0x2,%esi
  405089:	80 65 0b 48          	andb   $0x48,0xb(%ebp)
  40508d:	88 4c 30 04          	mov    %cl,0x4(%eax,%esi,1)
  405091:	75 78                	jne    0x40510b
  405093:	f6 c1 80             	test   $0x80,%cl
  405096:	74 73                	je     0x40510b
  405098:	f6 45 0c 02          	testb  $0x2,0xc(%ebp)
  40509c:	74 6d                	je     0x40510b
  40509e:	6a 02                	push   $0x2
  4050a0:	6a ff                	push   $0xffffffff
  4050a2:	53                   	push   %ebx
  4050a3:	e8 48 fd ff ff       	call   0x404df0
  4050a8:	83 c4 0c             	add    $0xc,%esp
  4050ab:	83 f8 ff             	cmp    $0xffffffff,%eax
  4050ae:	89 45 f0             	mov    %eax,-0x10(%ebp)
  4050b1:	75 19                	jne    0x4050cc
  4050b3:	e8 22 f7 ff ff       	call   0x4047da
  4050b8:	81 38 83 00 00 00    	cmpl   $0x83,(%eax)
  4050be:	74 4b                	je     0x40510b
  4050c0:	53                   	push   %ebx
  4050c1:	e8 9c cf ff ff       	call   0x402062
  4050c6:	59                   	pop    %ecx
  4050c7:	83 ce ff             	or     $0xffffffff,%esi
  4050ca:	eb 58                	jmp    0x405124
  4050cc:	80 65 13 00          	andb   $0x0,0x13(%ebp)
  4050d0:	8d 45 13             	lea    0x13(%ebp),%eax
  4050d3:	6a 01                	push   $0x1
  4050d5:	50                   	push   %eax
  4050d6:	53                   	push   %ebx
  4050d7:	e8 09 d3 ff ff       	call   0x4023e5
  4050dc:	83 c4 0c             	add    $0xc,%esp
  4050df:	85 c0                	test   %eax,%eax
  4050e1:	75 16                	jne    0x4050f9
  4050e3:	80 7d 13 1a          	cmpb   $0x1a,0x13(%ebp)
  4050e7:	75 10                	jne    0x4050f9
  4050e9:	ff 75 f0             	pushl  -0x10(%ebp)
  4050ec:	53                   	push   %ebx
  4050ed:	e8 23 0a 00 00       	call   0x405b15
  4050f2:	59                   	pop    %ecx
  4050f3:	83 f8 ff             	cmp    $0xffffffff,%eax
  4050f6:	59                   	pop    %ecx
  4050f7:	74 c7                	je     0x4050c0
  4050f9:	6a 00                	push   $0x0
  4050fb:	6a 00                	push   $0x0
  4050fd:	53                   	push   %ebx
  4050fe:	e8 ed fc ff ff       	call   0x404df0
  405103:	83 c4 0c             	add    $0xc,%esp
  405106:	83 f8 ff             	cmp    $0xffffffff,%eax
  405109:	74 b5                	je     0x4050c0
  40510b:	80 7d 0b 00          	cmpb   $0x0,0xb(%ebp)
  40510f:	75 11                	jne    0x405122
  405111:	f6 45 0c 08          	testb  $0x8,0xc(%ebp)
  405115:	74 0b                	je     0x405122
  405117:	8b 07                	mov    (%edi),%eax
  405119:	80 4c 30 04 20       	orb    $0x20,0x4(%eax,%esi,1)
  40511e:	8d 44 30 04          	lea    0x4(%eax,%esi,1),%eax
  405122:	8b f3                	mov    %ebx,%esi
  405124:	53                   	push   %ebx
  405125:	e8 78 f9 ff ff       	call   0x404aa2
  40512a:	59                   	pop    %ecx
  40512b:	8b c6                	mov    %esi,%eax
  40512d:	5f                   	pop    %edi
  40512e:	5e                   	pop    %esi
  40512f:	5b                   	pop    %ebx
  405130:	c9                   	leave  
  405131:	c3                   	ret    
  405132:	cc                   	int3   
  405133:	cc                   	int3   
  405134:	cc                   	int3   
  405135:	cc                   	int3   
  405136:	cc                   	int3   
  405137:	cc                   	int3   
  405138:	cc                   	int3   
  405139:	cc                   	int3   
  40513a:	cc                   	int3   
  40513b:	cc                   	int3   
  40513c:	cc                   	int3   
  40513d:	cc                   	int3   
  40513e:	cc                   	int3   
  40513f:	cc                   	int3   
  405140:	57                   	push   %edi
  405141:	8b 7c 24 08          	mov    0x8(%esp),%edi
  405145:	eb 6a                	jmp    0x4051b1
  405147:	8d a4 24 00 00 00 00 	lea    0x0(%esp),%esp
  40514e:	8b ff                	mov    %edi,%edi
  405150:	8b 4c 24 04          	mov    0x4(%esp),%ecx
  405154:	57                   	push   %edi
  405155:	f7 c1 03 00 00 00    	test   $0x3,%ecx
  40515b:	74 0f                	je     0x40516c
  40515d:	8a 01                	mov    (%ecx),%al
  40515f:	41                   	inc    %ecx
  405160:	84 c0                	test   %al,%al
  405162:	74 3b                	je     0x40519f
  405164:	f7 c1 03 00 00 00    	test   $0x3,%ecx
  40516a:	75 f1                	jne    0x40515d
  40516c:	8b 01                	mov    (%ecx),%eax
  40516e:	ba ff fe fe 7e       	mov    $0x7efefeff,%edx
  405173:	03 d0                	add    %eax,%edx
  405175:	83 f0 ff             	xor    $0xffffffff,%eax
  405178:	33 c2                	xor    %edx,%eax
  40517a:	83 c1 04             	add    $0x4,%ecx
  40517d:	a9 00 01 01 81       	test   $0x81010100,%eax
  405182:	74 e8                	je     0x40516c
  405184:	8b 41 fc             	mov    -0x4(%ecx),%eax
  405187:	84 c0                	test   %al,%al
  405189:	74 23                	je     0x4051ae
  40518b:	84 e4                	test   %ah,%ah
  40518d:	74 1a                	je     0x4051a9
  40518f:	a9 00 00 ff 00       	test   $0xff0000,%eax
  405194:	74 0e                	je     0x4051a4
  405196:	a9 00 00 00 ff       	test   $0xff000000,%eax
  40519b:	74 02                	je     0x40519f
  40519d:	eb cd                	jmp    0x40516c
  40519f:	8d 79 ff             	lea    -0x1(%ecx),%edi
  4051a2:	eb 0d                	jmp    0x4051b1
  4051a4:	8d 79 fe             	lea    -0x2(%ecx),%edi
  4051a7:	eb 08                	jmp    0x4051b1
  4051a9:	8d 79 fd             	lea    -0x3(%ecx),%edi
  4051ac:	eb 03                	jmp    0x4051b1
  4051ae:	8d 79 fc             	lea    -0x4(%ecx),%edi
  4051b1:	8b 4c 24 0c          	mov    0xc(%esp),%ecx
  4051b5:	f7 c1 03 00 00 00    	test   $0x3,%ecx
  4051bb:	74 19                	je     0x4051d6
  4051bd:	8a 11                	mov    (%ecx),%dl
  4051bf:	41                   	inc    %ecx
  4051c0:	84 d2                	test   %dl,%dl
  4051c2:	74 64                	je     0x405228
  4051c4:	88 17                	mov    %dl,(%edi)
  4051c6:	47                   	inc    %edi
  4051c7:	f7 c1 03 00 00 00    	test   $0x3,%ecx
  4051cd:	75 ee                	jne    0x4051bd
  4051cf:	eb 05                	jmp    0x4051d6
  4051d1:	89 17                	mov    %edx,(%edi)
  4051d3:	83 c7 04             	add    $0x4,%edi
  4051d6:	ba ff fe fe 7e       	mov    $0x7efefeff,%edx
  4051db:	8b 01                	mov    (%ecx),%eax
  4051dd:	03 d0                	add    %eax,%edx
  4051df:	83 f0 ff             	xor    $0xffffffff,%eax
  4051e2:	33 c2                	xor    %edx,%eax
  4051e4:	8b 11                	mov    (%ecx),%edx
  4051e6:	83 c1 04             	add    $0x4,%ecx
  4051e9:	a9 00 01 01 81       	test   $0x81010100,%eax
  4051ee:	74 e1                	je     0x4051d1
  4051f0:	84 d2                	test   %dl,%dl
  4051f2:	74 34                	je     0x405228
  4051f4:	84 f6                	test   %dh,%dh
  4051f6:	74 27                	je     0x40521f
  4051f8:	f7 c2 00 00 ff 00    	test   $0xff0000,%edx
  4051fe:	74 12                	je     0x405212
  405200:	f7 c2 00 00 00 ff    	test   $0xff000000,%edx
  405206:	74 02                	je     0x40520a
  405208:	eb c7                	jmp    0x4051d1
  40520a:	89 17                	mov    %edx,(%edi)
  40520c:	8b 44 24 08          	mov    0x8(%esp),%eax
  405210:	5f                   	pop    %edi
  405211:	c3                   	ret    
  405212:	66 89 17             	mov    %dx,(%edi)
  405215:	8b 44 24 08          	mov    0x8(%esp),%eax
  405219:	c6 47 02 00          	movb   $0x0,0x2(%edi)
  40521d:	5f                   	pop    %edi
  40521e:	c3                   	ret    
  40521f:	66 89 17             	mov    %dx,(%edi)
  405222:	8b 44 24 08          	mov    0x8(%esp),%eax
  405226:	5f                   	pop    %edi
  405227:	c3                   	ret    
  405228:	88 17                	mov    %dl,(%edi)
  40522a:	8b 44 24 08          	mov    0x8(%esp),%eax
  40522e:	5f                   	pop    %edi
  40522f:	c3                   	ret    
  405230:	55                   	push   %ebp
  405231:	8b ec                	mov    %esp,%ebp
  405233:	83 ec 18             	sub    $0x18,%esp
  405236:	53                   	push   %ebx
  405237:	56                   	push   %esi
  405238:	57                   	push   %edi
  405239:	6a 19                	push   $0x19
  40523b:	e8 f7 e9 ff ff       	call   0x403c37
  405240:	ff 75 08             	pushl  0x8(%ebp)
  405243:	e8 95 01 00 00       	call   0x4053dd
  405248:	8b d8                	mov    %eax,%ebx
  40524a:	59                   	pop    %ecx
  40524b:	3b 1d c0 90 40 00    	cmp    0x4090c0,%ebx
  405251:	59                   	pop    %ecx
  405252:	89 5d 08             	mov    %ebx,0x8(%ebp)
  405255:	75 07                	jne    0x40525e
  405257:	33 f6                	xor    %esi,%esi
  405259:	e9 70 01 00 00       	jmp    0x4053ce
  40525e:	85 db                	test   %ebx,%ebx
  405260:	0f 84 56 01 00 00    	je     0x4053bc
  405266:	33 d2                	xor    %edx,%edx
  405268:	b8 18 89 40 00       	mov    $0x408918,%eax
  40526d:	39 18                	cmp    %ebx,(%eax)
  40526f:	74 74                	je     0x4052e5
  405271:	83 c0 30             	add    $0x30,%eax
  405274:	42                   	inc    %edx
  405275:	3d 08 8a 40 00       	cmp    $0x408a08,%eax
  40527a:	7c f1                	jl     0x40526d
  40527c:	8d 45 e8             	lea    -0x18(%ebp),%eax
  40527f:	50                   	push   %eax
  405280:	53                   	push   %ebx
  405281:	ff 15 ac 70 40 00    	call   *0x4070ac
  405287:	6a 01                	push   $0x1
  405289:	5e                   	pop    %esi
  40528a:	3b c6                	cmp    %esi,%eax
  40528c:	0f 85 21 01 00 00    	jne    0x4053b3
  405292:	6a 40                	push   $0x40
  405294:	83 25 e4 92 40 00 00 	andl   $0x0,0x4092e4
  40529b:	59                   	pop    %ecx
  40529c:	33 c0                	xor    %eax,%eax
  40529e:	bf e0 91 40 00       	mov    $0x4091e0,%edi
  4052a3:	39 75 e8             	cmp    %esi,-0x18(%ebp)
  4052a6:	f3 ab                	rep stos %eax,%es:(%edi)
  4052a8:	aa                   	stos   %al,%es:(%edi)
  4052a9:	89 1d c0 90 40 00    	mov    %ebx,0x4090c0
  4052af:	0f 86 eb 00 00 00    	jbe    0x4053a0
  4052b5:	80 7d ee 00          	cmpb   $0x0,-0x12(%ebp)
  4052b9:	0f 84 bc 00 00 00    	je     0x40537b
  4052bf:	8d 4d ef             	lea    -0x11(%ebp),%ecx
  4052c2:	8a 11                	mov    (%ecx),%dl
  4052c4:	84 d2                	test   %dl,%dl
  4052c6:	0f 84 af 00 00 00    	je     0x40537b
  4052cc:	0f b6 41 ff          	movzbl -0x1(%ecx),%eax
  4052d0:	0f b6 d2             	movzbl %dl,%edx
  4052d3:	3b c2                	cmp    %edx,%eax
  4052d5:	0f 87 94 00 00 00    	ja     0x40536f
  4052db:	80 88 e1 91 40 00 04 	orb    $0x4,0x4091e1(%eax)
  4052e2:	40                   	inc    %eax
  4052e3:	eb ee                	jmp    0x4052d3
  4052e5:	83 65 fc 00          	andl   $0x0,-0x4(%ebp)
  4052e9:	6a 40                	push   $0x40
  4052eb:	59                   	pop    %ecx
  4052ec:	33 c0                	xor    %eax,%eax
  4052ee:	bf e0 91 40 00       	mov    $0x4091e0,%edi
  4052f3:	8d 34 52             	lea    (%edx,%edx,2),%esi
  4052f6:	f3 ab                	rep stos %eax,%es:(%edi)
  4052f8:	c1 e6 04             	shl    $0x4,%esi
  4052fb:	aa                   	stos   %al,%es:(%edi)
  4052fc:	8d 9e 28 89 40 00    	lea    0x408928(%esi),%ebx
  405302:	80 3b 00             	cmpb   $0x0,(%ebx)
  405305:	8b cb                	mov    %ebx,%ecx
  405307:	74 2c                	je     0x405335
  405309:	8a 51 01             	mov    0x1(%ecx),%dl
  40530c:	84 d2                	test   %dl,%dl
  40530e:	74 25                	je     0x405335
  405310:	0f b6 01             	movzbl (%ecx),%eax
  405313:	0f b6 fa             	movzbl %dl,%edi
  405316:	3b c7                	cmp    %edi,%eax
  405318:	77 14                	ja     0x40532e
  40531a:	8b 55 fc             	mov    -0x4(%ebp),%edx
  40531d:	8a 92 10 89 40 00    	mov    0x408910(%edx),%dl
  405323:	08 90 e1 91 40 00    	or     %dl,0x4091e1(%eax)
  405329:	40                   	inc    %eax
  40532a:	3b c7                	cmp    %edi,%eax
  40532c:	76 f5                	jbe    0x405323
  40532e:	41                   	inc    %ecx
  40532f:	41                   	inc    %ecx
  405330:	80 39 00             	cmpb   $0x0,(%ecx)
  405333:	75 d4                	jne    0x405309
  405335:	ff 45 fc             	incl   -0x4(%ebp)
  405338:	83 c3 08             	add    $0x8,%ebx
  40533b:	83 7d fc 04          	cmpl   $0x4,-0x4(%ebp)
  40533f:	72 c1                	jb     0x405302
  405341:	8b 45 08             	mov    0x8(%ebp),%eax
  405344:	c7 05 dc 90 40 00 01 	movl   $0x1,0x4090dc
  40534b:	00 00 00 
  40534e:	50                   	push   %eax
  40534f:	a3 c0 90 40 00       	mov    %eax,0x4090c0
  405354:	e8 ce 00 00 00       	call   0x405427
  405359:	8d b6 1c 89 40 00    	lea    0x40891c(%esi),%esi
  40535f:	bf d0 90 40 00       	mov    $0x4090d0,%edi
  405364:	a5                   	movsl  %ds:(%esi),%es:(%edi)
  405365:	a5                   	movsl  %ds:(%esi),%es:(%edi)
  405366:	59                   	pop    %ecx
  405367:	a3 e4 92 40 00       	mov    %eax,0x4092e4
  40536c:	a5                   	movsl  %ds:(%esi),%es:(%edi)
  40536d:	eb 52                	jmp    0x4053c1
  40536f:	41                   	inc    %ecx
  405370:	41                   	inc    %ecx
  405371:	80 79 ff 00          	cmpb   $0x0,-0x1(%ecx)
  405375:	0f 85 47 ff ff ff    	jne    0x4052c2
  40537b:	8b c6                	mov    %esi,%eax
  40537d:	80 88 e1 91 40 00 08 	orb    $0x8,0x4091e1(%eax)
  405384:	40                   	inc    %eax
  405385:	3d ff 00 00 00       	cmp    $0xff,%eax
  40538a:	72 f1                	jb     0x40537d
  40538c:	53                   	push   %ebx
  40538d:	e8 95 00 00 00       	call   0x405427
  405392:	59                   	pop    %ecx
  405393:	a3 e4 92 40 00       	mov    %eax,0x4092e4
  405398:	89 35 dc 90 40 00    	mov    %esi,0x4090dc
  40539e:	eb 07                	jmp    0x4053a7
  4053a0:	83 25 dc 90 40 00 00 	andl   $0x0,0x4090dc
  4053a7:	33 c0                	xor    %eax,%eax
  4053a9:	bf d0 90 40 00       	mov    $0x4090d0,%edi
  4053ae:	ab                   	stos   %eax,%es:(%edi)
  4053af:	ab                   	stos   %eax,%es:(%edi)
  4053b0:	ab                   	stos   %eax,%es:(%edi)
  4053b1:	eb 0e                	jmp    0x4053c1
  4053b3:	83 3d 2c 8f 40 00 00 	cmpl   $0x0,0x408f2c
  4053ba:	74 0f                	je     0x4053cb
  4053bc:	e8 99 00 00 00       	call   0x40545a
  4053c1:	e8 bd 00 00 00       	call   0x405483
  4053c6:	e9 8c fe ff ff       	jmp    0x405257
  4053cb:	83 ce ff             	or     $0xffffffff,%esi
  4053ce:	6a 19                	push   $0x19
  4053d0:	e8 c3 e8 ff ff       	call   0x403c98
  4053d5:	59                   	pop    %ecx
  4053d6:	8b c6                	mov    %esi,%eax
  4053d8:	5f                   	pop    %edi
  4053d9:	5e                   	pop    %esi
  4053da:	5b                   	pop    %ebx
  4053db:	c9                   	leave  
  4053dc:	c3                   	ret    
  4053dd:	8b 44 24 04          	mov    0x4(%esp),%eax
  4053e1:	83 25 2c 8f 40 00 00 	andl   $0x0,0x408f2c
  4053e8:	83 f8 fe             	cmp    $0xfffffffe,%eax
  4053eb:	75 10                	jne    0x4053fd
  4053ed:	c7 05 2c 8f 40 00 01 	movl   $0x1,0x408f2c
  4053f4:	00 00 00 
  4053f7:	ff 25 b4 70 40 00    	jmp    *0x4070b4
  4053fd:	83 f8 fd             	cmp    $0xfffffffd,%eax
  405400:	75 10                	jne    0x405412
  405402:	c7 05 2c 8f 40 00 01 	movl   $0x1,0x408f2c
  405409:	00 00 00 
  40540c:	ff 25 b0 70 40 00    	jmp    *0x4070b0
  405412:	83 f8 fc             	cmp    $0xfffffffc,%eax
  405415:	75 0f                	jne    0x405426
  405417:	a1 68 8f 40 00       	mov    0x408f68,%eax
  40541c:	c7 05 2c 8f 40 00 01 	movl   $0x1,0x408f2c
  405423:	00 00 00 
  405426:	c3                   	ret    
  405427:	8b 44 24 04          	mov    0x4(%esp),%eax
  40542b:	2d a4 03 00 00       	sub    $0x3a4,%eax
  405430:	74 22                	je     0x405454
  405432:	83 e8 04             	sub    $0x4,%eax
  405435:	74 17                	je     0x40544e
  405437:	83 e8 0d             	sub    $0xd,%eax
  40543a:	74 0c                	je     0x405448
  40543c:	48                   	dec    %eax
  40543d:	74 03                	je     0x405442
  40543f:	33 c0                	xor    %eax,%eax
  405441:	c3                   	ret    
  405442:	b8 04 04 00 00       	mov    $0x404,%eax
  405447:	c3                   	ret    
  405448:	b8 12 04 00 00       	mov    $0x412,%eax
  40544d:	c3                   	ret    
  40544e:	b8 04 08 00 00       	mov    $0x804,%eax
  405453:	c3                   	ret    
  405454:	b8 11 04 00 00       	mov    $0x411,%eax
  405459:	c3                   	ret    
  40545a:	57                   	push   %edi
  40545b:	6a 40                	push   $0x40
  40545d:	59                   	pop    %ecx
  40545e:	33 c0                	xor    %eax,%eax
  405460:	bf e0 91 40 00       	mov    $0x4091e0,%edi
  405465:	f3 ab                	rep stos %eax,%es:(%edi)
  405467:	aa                   	stos   %al,%es:(%edi)
  405468:	33 c0                	xor    %eax,%eax
  40546a:	bf d0 90 40 00       	mov    $0x4090d0,%edi
  40546f:	a3 c0 90 40 00       	mov    %eax,0x4090c0
  405474:	a3 dc 90 40 00       	mov    %eax,0x4090dc
  405479:	a3 e4 92 40 00       	mov    %eax,0x4092e4
  40547e:	ab                   	stos   %eax,%es:(%edi)
  40547f:	ab                   	stos   %eax,%es:(%edi)
  405480:	ab                   	stos   %eax,%es:(%edi)
  405481:	5f                   	pop    %edi
  405482:	c3                   	ret    
  405483:	55                   	push   %ebp
  405484:	8b ec                	mov    %esp,%ebp
  405486:	81 ec 14 05 00 00    	sub    $0x514,%esp
  40548c:	8d 45 ec             	lea    -0x14(%ebp),%eax
  40548f:	56                   	push   %esi
  405490:	50                   	push   %eax
  405491:	ff 35 c0 90 40 00    	pushl  0x4090c0
  405497:	ff 15 ac 70 40 00    	call   *0x4070ac
  40549d:	83 f8 01             	cmp    $0x1,%eax
  4054a0:	0f 85 16 01 00 00    	jne    0x4055bc
  4054a6:	33 c0                	xor    %eax,%eax
  4054a8:	be 00 01 00 00       	mov    $0x100,%esi
  4054ad:	88 84 05 ec fe ff ff 	mov    %al,-0x114(%ebp,%eax,1)
  4054b4:	40                   	inc    %eax
  4054b5:	3b c6                	cmp    %esi,%eax
  4054b7:	72 f4                	jb     0x4054ad
  4054b9:	8a 45 f2             	mov    -0xe(%ebp),%al
  4054bc:	c6 85 ec fe ff ff 20 	movb   $0x20,-0x114(%ebp)
  4054c3:	84 c0                	test   %al,%al
  4054c5:	74 37                	je     0x4054fe
  4054c7:	53                   	push   %ebx
  4054c8:	57                   	push   %edi
  4054c9:	8d 55 f3             	lea    -0xd(%ebp),%edx
  4054cc:	0f b6 0a             	movzbl (%edx),%ecx
  4054cf:	0f b6 c0             	movzbl %al,%eax
  4054d2:	3b c1                	cmp    %ecx,%eax
  4054d4:	77 1d                	ja     0x4054f3
  4054d6:	2b c8                	sub    %eax,%ecx
  4054d8:	8d bc 05 ec fe ff ff 	lea    -0x114(%ebp,%eax,1),%edi
  4054df:	41                   	inc    %ecx
  4054e0:	b8 20 20 20 20       	mov    $0x20202020,%eax
  4054e5:	8b d9                	mov    %ecx,%ebx
  4054e7:	c1 e9 02             	shr    $0x2,%ecx
  4054ea:	f3 ab                	rep stos %eax,%es:(%edi)
  4054ec:	8b cb                	mov    %ebx,%ecx
  4054ee:	83 e1 03             	and    $0x3,%ecx
  4054f1:	f3 aa                	rep stos %al,%es:(%edi)
  4054f3:	42                   	inc    %edx
  4054f4:	42                   	inc    %edx
  4054f5:	8a 42 ff             	mov    -0x1(%edx),%al
  4054f8:	84 c0                	test   %al,%al
  4054fa:	75 d0                	jne    0x4054cc
  4054fc:	5f                   	pop    %edi
  4054fd:	5b                   	pop    %ebx
  4054fe:	6a 00                	push   $0x0
  405500:	8d 85 ec fa ff ff    	lea    -0x514(%ebp),%eax
  405506:	ff 35 e4 92 40 00    	pushl  0x4092e4
  40550c:	ff 35 c0 90 40 00    	pushl  0x4090c0
  405512:	50                   	push   %eax
  405513:	8d 85 ec fe ff ff    	lea    -0x114(%ebp),%eax
  405519:	56                   	push   %esi
  40551a:	50                   	push   %eax
  40551b:	6a 01                	push   $0x1
  40551d:	e8 67 09 00 00       	call   0x405e89
  405522:	6a 00                	push   $0x0
  405524:	8d 85 ec fd ff ff    	lea    -0x214(%ebp),%eax
  40552a:	ff 35 c0 90 40 00    	pushl  0x4090c0
  405530:	56                   	push   %esi
  405531:	50                   	push   %eax
  405532:	8d 85 ec fe ff ff    	lea    -0x114(%ebp),%eax
  405538:	56                   	push   %esi
  405539:	50                   	push   %eax
  40553a:	56                   	push   %esi
  40553b:	ff 35 e4 92 40 00    	pushl  0x4092e4
  405541:	e8 f4 06 00 00       	call   0x405c3a
  405546:	6a 00                	push   $0x0
  405548:	8d 85 ec fc ff ff    	lea    -0x314(%ebp),%eax
  40554e:	ff 35 c0 90 40 00    	pushl  0x4090c0
  405554:	56                   	push   %esi
  405555:	50                   	push   %eax
  405556:	8d 85 ec fe ff ff    	lea    -0x114(%ebp),%eax
  40555c:	56                   	push   %esi
  40555d:	50                   	push   %eax
  40555e:	68 00 02 00 00       	push   $0x200
  405563:	ff 35 e4 92 40 00    	pushl  0x4092e4
  405569:	e8 cc 06 00 00       	call   0x405c3a
  40556e:	83 c4 5c             	add    $0x5c,%esp
  405571:	33 c0                	xor    %eax,%eax
  405573:	8d 8d ec fa ff ff    	lea    -0x514(%ebp),%ecx
  405579:	66 8b 11             	mov    (%ecx),%dx
  40557c:	f6 c2 01             	test   $0x1,%dl
  40557f:	74 16                	je     0x405597
  405581:	80 88 e1 91 40 00 10 	orb    $0x10,0x4091e1(%eax)
  405588:	8a 94 05 ec fd ff ff 	mov    -0x214(%ebp,%eax,1),%dl
  40558f:	88 90 e0 90 40 00    	mov    %dl,0x4090e0(%eax)
  405595:	eb 1c                	jmp    0x4055b3
  405597:	f6 c2 02             	test   $0x2,%dl
  40559a:	74 10                	je     0x4055ac
  40559c:	80 88 e1 91 40 00 20 	orb    $0x20,0x4091e1(%eax)
  4055a3:	8a 94 05 ec fc ff ff 	mov    -0x314(%ebp,%eax,1),%dl
  4055aa:	eb e3                	jmp    0x40558f
  4055ac:	80 a0 e0 90 40 00 00 	andb   $0x0,0x4090e0(%eax)
  4055b3:	40                   	inc    %eax
  4055b4:	41                   	inc    %ecx
  4055b5:	41                   	inc    %ecx
  4055b6:	3b c6                	cmp    %esi,%eax
  4055b8:	72 bf                	jb     0x405579
  4055ba:	eb 49                	jmp    0x405605
  4055bc:	33 c0                	xor    %eax,%eax
  4055be:	be 00 01 00 00       	mov    $0x100,%esi
  4055c3:	83 f8 41             	cmp    $0x41,%eax
  4055c6:	72 19                	jb     0x4055e1
  4055c8:	83 f8 5a             	cmp    $0x5a,%eax
  4055cb:	77 14                	ja     0x4055e1
  4055cd:	80 88 e1 91 40 00 10 	orb    $0x10,0x4091e1(%eax)
  4055d4:	8a c8                	mov    %al,%cl
  4055d6:	80 c1 20             	add    $0x20,%cl
  4055d9:	88 88 e0 90 40 00    	mov    %cl,0x4090e0(%eax)
  4055df:	eb 1f                	jmp    0x405600
  4055e1:	83 f8 61             	cmp    $0x61,%eax
  4055e4:	72 13                	jb     0x4055f9
  4055e6:	83 f8 7a             	cmp    $0x7a,%eax
  4055e9:	77 0e                	ja     0x4055f9
  4055eb:	80 88 e1 91 40 00 20 	orb    $0x20,0x4091e1(%eax)
  4055f2:	8a c8                	mov    %al,%cl
  4055f4:	80 e9 20             	sub    $0x20,%cl
  4055f7:	eb e0                	jmp    0x4055d9
  4055f9:	80 a0 e0 90 40 00 00 	andb   $0x0,0x4090e0(%eax)
  405600:	40                   	inc    %eax
  405601:	3b c6                	cmp    %esi,%eax
  405603:	72 be                	jb     0x4055c3
  405605:	5e                   	pop    %esi
  405606:	c9                   	leave  
  405607:	c3                   	ret    
  405608:	83 3d 28 94 40 00 00 	cmpl   $0x0,0x409428
  40560f:	75 12                	jne    0x405623
  405611:	6a fd                	push   $0xfffffffd
  405613:	e8 18 fc ff ff       	call   0x405230
  405618:	59                   	pop    %ecx
  405619:	c7 05 28 94 40 00 01 	movl   $0x1,0x409428
  405620:	00 00 00 
  405623:	c3                   	ret    
  405624:	53                   	push   %ebx
  405625:	33 db                	xor    %ebx,%ebx
  405627:	39 1d 30 8f 40 00    	cmp    %ebx,0x408f30
  40562d:	56                   	push   %esi
  40562e:	57                   	push   %edi
  40562f:	75 42                	jne    0x405673
  405631:	68 80 74 40 00       	push   $0x407480
  405636:	ff 15 bc 70 40 00    	call   *0x4070bc
  40563c:	8b f8                	mov    %eax,%edi
  40563e:	3b fb                	cmp    %ebx,%edi
  405640:	74 67                	je     0x4056a9
  405642:	8b 35 b8 70 40 00    	mov    0x4070b8,%esi
  405648:	68 74 74 40 00       	push   $0x407474
  40564d:	57                   	push   %edi
  40564e:	ff d6                	call   *%esi
  405650:	85 c0                	test   %eax,%eax
  405652:	a3 30 8f 40 00       	mov    %eax,0x408f30
  405657:	74 50                	je     0x4056a9
  405659:	68 64 74 40 00       	push   $0x407464
  40565e:	57                   	push   %edi
  40565f:	ff d6                	call   *%esi
  405661:	68 50 74 40 00       	push   $0x407450
  405666:	57                   	push   %edi
  405667:	a3 34 8f 40 00       	mov    %eax,0x408f34
  40566c:	ff d6                	call   *%esi
  40566e:	a3 38 8f 40 00       	mov    %eax,0x408f38
  405673:	a1 34 8f 40 00       	mov    0x408f34,%eax
  405678:	85 c0                	test   %eax,%eax
  40567a:	74 16                	je     0x405692
  40567c:	ff d0                	call   *%eax
  40567e:	8b d8                	mov    %eax,%ebx
  405680:	85 db                	test   %ebx,%ebx
  405682:	74 0e                	je     0x405692
  405684:	a1 38 8f 40 00       	mov    0x408f38,%eax
  405689:	85 c0                	test   %eax,%eax
  40568b:	74 05                	je     0x405692
  40568d:	53                   	push   %ebx
  40568e:	ff d0                	call   *%eax
  405690:	8b d8                	mov    %eax,%ebx
  405692:	ff 74 24 18          	pushl  0x18(%esp)
  405696:	ff 74 24 18          	pushl  0x18(%esp)
  40569a:	ff 74 24 18          	pushl  0x18(%esp)
  40569e:	53                   	push   %ebx
  40569f:	ff 15 30 8f 40 00    	call   *0x408f30
  4056a5:	5f                   	pop    %edi
  4056a6:	5e                   	pop    %esi
  4056a7:	5b                   	pop    %ebx
  4056a8:	c3                   	ret    
  4056a9:	33 c0                	xor    %eax,%eax
  4056ab:	eb f8                	jmp    0x4056a5
  4056ad:	cc                   	int3   
  4056ae:	cc                   	int3   
  4056af:	cc                   	int3   
  4056b0:	8b 4c 24 0c          	mov    0xc(%esp),%ecx
  4056b4:	57                   	push   %edi
  4056b5:	85 c9                	test   %ecx,%ecx
  4056b7:	74 7a                	je     0x405733
  4056b9:	56                   	push   %esi
  4056ba:	53                   	push   %ebx
  4056bb:	8b d9                	mov    %ecx,%ebx
  4056bd:	8b 74 24 14          	mov    0x14(%esp),%esi
  4056c1:	f7 c6 03 00 00 00    	test   $0x3,%esi
  4056c7:	8b 7c 24 10          	mov    0x10(%esp),%edi
  4056cb:	75 07                	jne    0x4056d4
  4056cd:	c1 e9 02             	shr    $0x2,%ecx
  4056d0:	75 6f                	jne    0x405741
  4056d2:	eb 21                	jmp    0x4056f5
  4056d4:	8a 06                	mov    (%esi),%al
  4056d6:	46                   	inc    %esi
  4056d7:	88 07                	mov    %al,(%edi)
  4056d9:	47                   	inc    %edi
  4056da:	49                   	dec    %ecx
  4056db:	74 25                	je     0x405702
  4056dd:	84 c0                	test   %al,%al
  4056df:	74 29                	je     0x40570a
  4056e1:	f7 c6 03 00 00 00    	test   $0x3,%esi
  4056e7:	75 eb                	jne    0x4056d4
  4056e9:	8b d9                	mov    %ecx,%ebx
  4056eb:	c1 e9 02             	shr    $0x2,%ecx
  4056ee:	75 51                	jne    0x405741
  4056f0:	83 e3 03             	and    $0x3,%ebx
  4056f3:	74 0d                	je     0x405702
  4056f5:	8a 06                	mov    (%esi),%al
  4056f7:	46                   	inc    %esi
  4056f8:	88 07                	mov    %al,(%edi)
  4056fa:	47                   	inc    %edi
  4056fb:	84 c0                	test   %al,%al
  4056fd:	74 2f                	je     0x40572e
  4056ff:	4b                   	dec    %ebx
  405700:	75 f3                	jne    0x4056f5
  405702:	8b 44 24 10          	mov    0x10(%esp),%eax
  405706:	5b                   	pop    %ebx
  405707:	5e                   	pop    %esi
  405708:	5f                   	pop    %edi
  405709:	c3                   	ret    
  40570a:	f7 c7 03 00 00 00    	test   $0x3,%edi
  405710:	74 12                	je     0x405724
  405712:	88 07                	mov    %al,(%edi)
  405714:	47                   	inc    %edi
  405715:	49                   	dec    %ecx
  405716:	0f 84 8a 00 00 00    	je     0x4057a6
  40571c:	f7 c7 03 00 00 00    	test   $0x3,%edi
  405722:	75 ee                	jne    0x405712
  405724:	8b d9                	mov    %ecx,%ebx
  405726:	c1 e9 02             	shr    $0x2,%ecx
  405729:	75 6c                	jne    0x405797
  40572b:	88 07                	mov    %al,(%edi)
  40572d:	47                   	inc    %edi
  40572e:	4b                   	dec    %ebx
  40572f:	75 fa                	jne    0x40572b
  405731:	5b                   	pop    %ebx
  405732:	5e                   	pop    %esi
  405733:	8b 44 24 08          	mov    0x8(%esp),%eax
  405737:	5f                   	pop    %edi
  405738:	c3                   	ret    
  405739:	89 17                	mov    %edx,(%edi)
  40573b:	83 c7 04             	add    $0x4,%edi
  40573e:	49                   	dec    %ecx
  40573f:	74 af                	je     0x4056f0
  405741:	ba ff fe fe 7e       	mov    $0x7efefeff,%edx
  405746:	8b 06                	mov    (%esi),%eax
  405748:	03 d0                	add    %eax,%edx
  40574a:	83 f0 ff             	xor    $0xffffffff,%eax
  40574d:	33 c2                	xor    %edx,%eax
  40574f:	8b 16                	mov    (%esi),%edx
  405751:	83 c6 04             	add    $0x4,%esi
  405754:	a9 00 01 01 81       	test   $0x81010100,%eax
  405759:	74 de                	je     0x405739
  40575b:	84 d2                	test   %dl,%dl
  40575d:	74 2c                	je     0x40578b
  40575f:	84 f6                	test   %dh,%dh
  405761:	74 1e                	je     0x405781
  405763:	f7 c2 00 00 ff 00    	test   $0xff0000,%edx
  405769:	74 0c                	je     0x405777
  40576b:	f7 c2 00 00 00 ff    	test   $0xff000000,%edx
  405771:	75 c6                	jne    0x405739
  405773:	89 17                	mov    %edx,(%edi)
  405775:	eb 18                	jmp    0x40578f
  405777:	81 e2 ff ff 00 00    	and    $0xffff,%edx
  40577d:	89 17                	mov    %edx,(%edi)
  40577f:	eb 0e                	jmp    0x40578f
  405781:	81 e2 ff 00 00 00    	and    $0xff,%edx
  405787:	89 17                	mov    %edx,(%edi)
  405789:	eb 04                	jmp    0x40578f
  40578b:	33 d2                	xor    %edx,%edx
  40578d:	89 17                	mov    %edx,(%edi)
  40578f:	83 c7 04             	add    $0x4,%edi
  405792:	33 c0                	xor    %eax,%eax
  405794:	49                   	dec    %ecx
  405795:	74 0a                	je     0x4057a1
  405797:	33 c0                	xor    %eax,%eax
  405799:	89 07                	mov    %eax,(%edi)
  40579b:	83 c7 04             	add    $0x4,%edi
  40579e:	49                   	dec    %ecx
  40579f:	75 f8                	jne    0x405799
  4057a1:	83 e3 03             	and    $0x3,%ebx
  4057a4:	75 85                	jne    0x40572b
  4057a6:	8b 44 24 10          	mov    0x10(%esp),%eax
  4057aa:	5b                   	pop    %ebx
  4057ab:	5e                   	pop    %esi
  4057ac:	5f                   	pop    %edi
  4057ad:	c3                   	ret    
  4057ae:	a1 3c 8f 40 00       	mov    0x408f3c,%eax
  4057b3:	85 c0                	test   %eax,%eax
  4057b5:	74 0f                	je     0x4057c6
  4057b7:	ff 74 24 04          	pushl  0x4(%esp)
  4057bb:	ff d0                	call   *%eax
  4057bd:	85 c0                	test   %eax,%eax
  4057bf:	59                   	pop    %ecx
  4057c0:	74 04                	je     0x4057c6
  4057c2:	6a 01                	push   $0x1
  4057c4:	58                   	pop    %eax
  4057c5:	c3                   	ret    
  4057c6:	33 c0                	xor    %eax,%eax
  4057c8:	c3                   	ret    
  4057c9:	6a 02                	push   $0x2
  4057cb:	e8 e0 bd ff ff       	call   0x4015b0
  4057d0:	59                   	pop    %ecx
  4057d1:	c3                   	ret    
  4057d2:	cc                   	int3   
  4057d3:	cc                   	int3   
  4057d4:	cc                   	int3   
  4057d5:	cc                   	int3   
  4057d6:	cc                   	int3   
  4057d7:	cc                   	int3   
  4057d8:	cc                   	int3   
  4057d9:	cc                   	int3   
  4057da:	cc                   	int3   
  4057db:	cc                   	int3   
  4057dc:	cc                   	int3   
  4057dd:	cc                   	int3   
  4057de:	cc                   	int3   
  4057df:	cc                   	int3   
  4057e0:	55                   	push   %ebp
  4057e1:	8b ec                	mov    %esp,%ebp
  4057e3:	57                   	push   %edi
  4057e4:	56                   	push   %esi
  4057e5:	8b 75 0c             	mov    0xc(%ebp),%esi
  4057e8:	8b 4d 10             	mov    0x10(%ebp),%ecx
  4057eb:	8b 7d 08             	mov    0x8(%ebp),%edi
  4057ee:	8b c1                	mov    %ecx,%eax
  4057f0:	8b d1                	mov    %ecx,%edx
  4057f2:	03 c6                	add    %esi,%eax
  4057f4:	3b fe                	cmp    %esi,%edi
  4057f6:	76 08                	jbe    0x405800
  4057f8:	3b f8                	cmp    %eax,%edi
  4057fa:	0f 82 78 01 00 00    	jb     0x405978
  405800:	f7 c7 03 00 00 00    	test   $0x3,%edi
  405806:	75 14                	jne    0x40581c
  405808:	c1 e9 02             	shr    $0x2,%ecx
  40580b:	83 e2 03             	and    $0x3,%edx
  40580e:	83 f9 08             	cmp    $0x8,%ecx
  405811:	72 29                	jb     0x40583c
  405813:	f3 a5                	rep movsl %ds:(%esi),%es:(%edi)
  405815:	ff 24 95 28 59 40 00 	jmp    *0x405928(,%edx,4)
  40581c:	8b c7                	mov    %edi,%eax
  40581e:	ba 03 00 00 00       	mov    $0x3,%edx
  405823:	83 e9 04             	sub    $0x4,%ecx
  405826:	72 0c                	jb     0x405834
  405828:	83 e0 03             	and    $0x3,%eax
  40582b:	03 c8                	add    %eax,%ecx
  40582d:	ff 24 85 40 58 40 00 	jmp    *0x405840(,%eax,4)
  405834:	ff 24 8d 38 59 40 00 	jmp    *0x405938(,%ecx,4)
  40583b:	90                   	nop
  40583c:	ff 24 8d bc 58 40 00 	jmp    *0x4058bc(,%ecx,4)
  405843:	90                   	nop
  405844:	50                   	push   %eax
  405845:	58                   	pop    %eax
  405846:	40                   	inc    %eax
  405847:	00 7c 58 40          	add    %bh,0x40(%eax,%ebx,2)
  40584b:	00 a0 58 40 00 23    	add    %ah,0x23004058(%eax)
  405851:	d1 8a 06 88 07 8a    	rorl   -0x75f877fa(%edx)
  405857:	46                   	inc    %esi
  405858:	01 88 47 01 8a 46    	add    %ecx,0x468a0147(%eax)
  40585e:	02 c1                	add    %cl,%al
  405860:	e9 02 88 47 02       	jmp    0x287e067
  405865:	83 c6 03             	add    $0x3,%esi
  405868:	83 c7 03             	add    $0x3,%edi
  40586b:	83 f9 08             	cmp    $0x8,%ecx
  40586e:	72 cc                	jb     0x40583c
  405870:	f3 a5                	rep movsl %ds:(%esi),%es:(%edi)
  405872:	ff 24 95 28 59 40 00 	jmp    *0x405928(,%edx,4)
  405879:	8d 49 00             	lea    0x0(%ecx),%ecx
  40587c:	23 d1                	and    %ecx,%edx
  40587e:	8a 06                	mov    (%esi),%al
  405880:	88 07                	mov    %al,(%edi)
  405882:	8a 46 01             	mov    0x1(%esi),%al
  405885:	c1 e9 02             	shr    $0x2,%ecx
  405888:	88 47 01             	mov    %al,0x1(%edi)
  40588b:	83 c6 02             	add    $0x2,%esi
  40588e:	83 c7 02             	add    $0x2,%edi
  405891:	83 f9 08             	cmp    $0x8,%ecx
  405894:	72 a6                	jb     0x40583c
  405896:	f3 a5                	rep movsl %ds:(%esi),%es:(%edi)
  405898:	ff 24 95 28 59 40 00 	jmp    *0x405928(,%edx,4)
  40589f:	90                   	nop
  4058a0:	23 d1                	and    %ecx,%edx
  4058a2:	8a 06                	mov    (%esi),%al
  4058a4:	88 07                	mov    %al,(%edi)
  4058a6:	46                   	inc    %esi
  4058a7:	c1 e9 02             	shr    $0x2,%ecx
  4058aa:	47                   	inc    %edi
  4058ab:	83 f9 08             	cmp    $0x8,%ecx
  4058ae:	72 8c                	jb     0x40583c
  4058b0:	f3 a5                	rep movsl %ds:(%esi),%es:(%edi)
  4058b2:	ff 24 95 28 59 40 00 	jmp    *0x405928(,%edx,4)
  4058b9:	8d 49 00             	lea    0x0(%ecx),%ecx
  4058bc:	1f                   	pop    %ds
  4058bd:	59                   	pop    %ecx
  4058be:	40                   	inc    %eax
  4058bf:	00 0c 59             	add    %cl,(%ecx,%ebx,2)
  4058c2:	40                   	inc    %eax
  4058c3:	00 04 59             	add    %al,(%ecx,%ebx,2)
  4058c6:	40                   	inc    %eax
  4058c7:	00 fc                	add    %bh,%ah
  4058c9:	58                   	pop    %eax
  4058ca:	40                   	inc    %eax
  4058cb:	00 f4                	add    %dh,%ah
  4058cd:	58                   	pop    %eax
  4058ce:	40                   	inc    %eax
  4058cf:	00 ec                	add    %ch,%ah
  4058d1:	58                   	pop    %eax
  4058d2:	40                   	inc    %eax
  4058d3:	00 e4                	add    %ah,%ah
  4058d5:	58                   	pop    %eax
  4058d6:	40                   	inc    %eax
  4058d7:	00 dc                	add    %bl,%ah
  4058d9:	58                   	pop    %eax
  4058da:	40                   	inc    %eax
  4058db:	00 8b 44 8e e4 89    	add    %cl,-0x761b71bc(%ebx)
  4058e1:	44                   	inc    %esp
  4058e2:	8f                   	(bad)  
  4058e3:	e4 8b                	in     $0x8b,%al
  4058e5:	44                   	inc    %esp
  4058e6:	8e e8                	mov    %eax,%gs
  4058e8:	89 44 8f e8          	mov    %eax,-0x18(%edi,%ecx,4)
  4058ec:	8b 44 8e ec          	mov    -0x14(%esi,%ecx,4),%eax
  4058f0:	89 44 8f ec          	mov    %eax,-0x14(%edi,%ecx,4)
  4058f4:	8b 44 8e f0          	mov    -0x10(%esi,%ecx,4),%eax
  4058f8:	89 44 8f f0          	mov    %eax,-0x10(%edi,%ecx,4)
  4058fc:	8b 44 8e f4          	mov    -0xc(%esi,%ecx,4),%eax
  405900:	89 44 8f f4          	mov    %eax,-0xc(%edi,%ecx,4)
  405904:	8b 44 8e f8          	mov    -0x8(%esi,%ecx,4),%eax
  405908:	89 44 8f f8          	mov    %eax,-0x8(%edi,%ecx,4)
  40590c:	8b 44 8e fc          	mov    -0x4(%esi,%ecx,4),%eax
  405910:	89 44 8f fc          	mov    %eax,-0x4(%edi,%ecx,4)
  405914:	8d 04 8d 00 00 00 00 	lea    0x0(,%ecx,4),%eax
  40591b:	03 f0                	add    %eax,%esi
  40591d:	03 f8                	add    %eax,%edi
  40591f:	ff 24 95 28 59 40 00 	jmp    *0x405928(,%edx,4)
  405926:	8b ff                	mov    %edi,%edi
  405928:	38 59 40             	cmp    %bl,0x40(%ecx)
  40592b:	00 40 59             	add    %al,0x59(%eax)
  40592e:	40                   	inc    %eax
  40592f:	00 4c 59 40          	add    %cl,0x40(%ecx,%ebx,2)
  405933:	00 60 59             	add    %ah,0x59(%eax)
  405936:	40                   	inc    %eax
  405937:	00 8b 45 08 5e 5f    	add    %cl,0x5f5e0845(%ebx)
  40593d:	c9                   	leave  
  40593e:	c3                   	ret    
  40593f:	90                   	nop
  405940:	8a 06                	mov    (%esi),%al
  405942:	88 07                	mov    %al,(%edi)
  405944:	8b 45 08             	mov    0x8(%ebp),%eax
  405947:	5e                   	pop    %esi
  405948:	5f                   	pop    %edi
  405949:	c9                   	leave  
  40594a:	c3                   	ret    
  40594b:	90                   	nop
  40594c:	8a 06                	mov    (%esi),%al
  40594e:	88 07                	mov    %al,(%edi)
  405950:	8a 46 01             	mov    0x1(%esi),%al
  405953:	88 47 01             	mov    %al,0x1(%edi)
  405956:	8b 45 08             	mov    0x8(%ebp),%eax
  405959:	5e                   	pop    %esi
  40595a:	5f                   	pop    %edi
  40595b:	c9                   	leave  
  40595c:	c3                   	ret    
  40595d:	8d 49 00             	lea    0x0(%ecx),%ecx
  405960:	8a 06                	mov    (%esi),%al
  405962:	88 07                	mov    %al,(%edi)
  405964:	8a 46 01             	mov    0x1(%esi),%al
  405967:	88 47 01             	mov    %al,0x1(%edi)
  40596a:	8a 46 02             	mov    0x2(%esi),%al
  40596d:	88 47 02             	mov    %al,0x2(%edi)
  405970:	8b 45 08             	mov    0x8(%ebp),%eax
  405973:	5e                   	pop    %esi
  405974:	5f                   	pop    %edi
  405975:	c9                   	leave  
  405976:	c3                   	ret    
  405977:	90                   	nop
  405978:	8d 74 31 fc          	lea    -0x4(%ecx,%esi,1),%esi
  40597c:	8d 7c 39 fc          	lea    -0x4(%ecx,%edi,1),%edi
  405980:	f7 c7 03 00 00 00    	test   $0x3,%edi
  405986:	75 24                	jne    0x4059ac
  405988:	c1 e9 02             	shr    $0x2,%ecx
  40598b:	83 e2 03             	and    $0x3,%edx
  40598e:	83 f9 08             	cmp    $0x8,%ecx
  405991:	72 0d                	jb     0x4059a0
  405993:	fd                   	std    
  405994:	f3 a5                	rep movsl %ds:(%esi),%es:(%edi)
  405996:	fc                   	cld    
  405997:	ff 24 95 c0 5a 40 00 	jmp    *0x405ac0(,%edx,4)
  40599e:	8b ff                	mov    %edi,%edi
  4059a0:	f7 d9                	neg    %ecx
  4059a2:	ff 24 8d 70 5a 40 00 	jmp    *0x405a70(,%ecx,4)
  4059a9:	8d 49 00             	lea    0x0(%ecx),%ecx
  4059ac:	8b c7                	mov    %edi,%eax
  4059ae:	ba 03 00 00 00       	mov    $0x3,%edx
  4059b3:	83 f9 04             	cmp    $0x4,%ecx
  4059b6:	72 0c                	jb     0x4059c4
  4059b8:	83 e0 03             	and    $0x3,%eax
  4059bb:	2b c8                	sub    %eax,%ecx
  4059bd:	ff 24 85 c8 59 40 00 	jmp    *0x4059c8(,%eax,4)
  4059c4:	ff 24 8d c0 5a 40 00 	jmp    *0x405ac0(,%ecx,4)
  4059cb:	90                   	nop
  4059cc:	d8 59 40             	fcomps 0x40(%ecx)
  4059cf:	00 f8                	add    %bh,%al
  4059d1:	59                   	pop    %ecx
  4059d2:	40                   	inc    %eax
  4059d3:	00 20                	add    %ah,(%eax)
  4059d5:	5a                   	pop    %edx
  4059d6:	40                   	inc    %eax
  4059d7:	00 8a 46 03 23 d1    	add    %cl,-0x2edcfcba(%edx)
  4059dd:	88 47 03             	mov    %al,0x3(%edi)
  4059e0:	4e                   	dec    %esi
  4059e1:	c1 e9 02             	shr    $0x2,%ecx
  4059e4:	4f                   	dec    %edi
  4059e5:	83 f9 08             	cmp    $0x8,%ecx
  4059e8:	72 b6                	jb     0x4059a0
  4059ea:	fd                   	std    
  4059eb:	f3 a5                	rep movsl %ds:(%esi),%es:(%edi)
  4059ed:	fc                   	cld    
  4059ee:	ff 24 95 c0 5a 40 00 	jmp    *0x405ac0(,%edx,4)
  4059f5:	8d 49 00             	lea    0x0(%ecx),%ecx
  4059f8:	8a 46 03             	mov    0x3(%esi),%al
  4059fb:	23 d1                	and    %ecx,%edx
  4059fd:	88 47 03             	mov    %al,0x3(%edi)
  405a00:	8a 46 02             	mov    0x2(%esi),%al
  405a03:	c1 e9 02             	shr    $0x2,%ecx
  405a06:	88 47 02             	mov    %al,0x2(%edi)
  405a09:	83 ee 02             	sub    $0x2,%esi
  405a0c:	83 ef 02             	sub    $0x2,%edi
  405a0f:	83 f9 08             	cmp    $0x8,%ecx
  405a12:	72 8c                	jb     0x4059a0
  405a14:	fd                   	std    
  405a15:	f3 a5                	rep movsl %ds:(%esi),%es:(%edi)
  405a17:	fc                   	cld    
  405a18:	ff 24 95 c0 5a 40 00 	jmp    *0x405ac0(,%edx,4)
  405a1f:	90                   	nop
  405a20:	8a 46 03             	mov    0x3(%esi),%al
  405a23:	23 d1                	and    %ecx,%edx
  405a25:	88 47 03             	mov    %al,0x3(%edi)
  405a28:	8a 46 02             	mov    0x2(%esi),%al
  405a2b:	88 47 02             	mov    %al,0x2(%edi)
  405a2e:	8a 46 01             	mov    0x1(%esi),%al
  405a31:	c1 e9 02             	shr    $0x2,%ecx
  405a34:	88 47 01             	mov    %al,0x1(%edi)
  405a37:	83 ee 03             	sub    $0x3,%esi
  405a3a:	83 ef 03             	sub    $0x3,%edi
  405a3d:	83 f9 08             	cmp    $0x8,%ecx
  405a40:	0f 82 5a ff ff ff    	jb     0x4059a0
  405a46:	fd                   	std    
  405a47:	f3 a5                	rep movsl %ds:(%esi),%es:(%edi)
  405a49:	fc                   	cld    
  405a4a:	ff 24 95 c0 5a 40 00 	jmp    *0x405ac0(,%edx,4)
  405a51:	8d 49 00             	lea    0x0(%ecx),%ecx
  405a54:	74 5a                	je     0x405ab0
  405a56:	40                   	inc    %eax
  405a57:	00 7c 5a 40          	add    %bh,0x40(%edx,%ebx,2)
  405a5b:	00 84 5a 40 00 8c 5a 	add    %al,0x5a8c0040(%edx,%ebx,2)
  405a62:	40                   	inc    %eax
  405a63:	00 94 5a 40 00 9c 5a 	add    %dl,0x5a9c0040(%edx,%ebx,2)
  405a6a:	40                   	inc    %eax
  405a6b:	00 a4 5a 40 00 b7 5a 	add    %ah,0x5ab70040(%edx,%ebx,2)
  405a72:	40                   	inc    %eax
  405a73:	00 8b 44 8e 1c 89    	add    %cl,-0x76e371bc(%ebx)
  405a79:	44                   	inc    %esp
  405a7a:	8f                   	(bad)  
  405a7b:	1c 8b                	sbb    $0x8b,%al
  405a7d:	44                   	inc    %esp
  405a7e:	8e 18                	mov    (%eax),%ds
  405a80:	89 44 8f 18          	mov    %eax,0x18(%edi,%ecx,4)
  405a84:	8b 44 8e 14          	mov    0x14(%esi,%ecx,4),%eax
  405a88:	89 44 8f 14          	mov    %eax,0x14(%edi,%ecx,4)
  405a8c:	8b 44 8e 10          	mov    0x10(%esi,%ecx,4),%eax
  405a90:	89 44 8f 10          	mov    %eax,0x10(%edi,%ecx,4)
  405a94:	8b 44 8e 0c          	mov    0xc(%esi,%ecx,4),%eax
  405a98:	89 44 8f 0c          	mov    %eax,0xc(%edi,%ecx,4)
  405a9c:	8b 44 8e 08          	mov    0x8(%esi,%ecx,4),%eax
  405aa0:	89 44 8f 08          	mov    %eax,0x8(%edi,%ecx,4)
  405aa4:	8b 44 8e 04          	mov    0x4(%esi,%ecx,4),%eax
  405aa8:	89 44 8f 04          	mov    %eax,0x4(%edi,%ecx,4)
  405aac:	8d 04 8d 00 00 00 00 	lea    0x0(,%ecx,4),%eax
  405ab3:	03 f0                	add    %eax,%esi
  405ab5:	03 f8                	add    %eax,%edi
  405ab7:	ff 24 95 c0 5a 40 00 	jmp    *0x405ac0(,%edx,4)
  405abe:	8b ff                	mov    %edi,%edi
  405ac0:	d0 5a 40             	rcrb   0x40(%edx)
  405ac3:	00 d8                	add    %bl,%al
  405ac5:	5a                   	pop    %edx
  405ac6:	40                   	inc    %eax
  405ac7:	00 e8                	add    %ch,%al
  405ac9:	5a                   	pop    %edx
  405aca:	40                   	inc    %eax
  405acb:	00 fc                	add    %bh,%ah
  405acd:	5a                   	pop    %edx
  405ace:	40                   	inc    %eax
  405acf:	00 8b 45 08 5e 5f    	add    %cl,0x5f5e0845(%ebx)
  405ad5:	c9                   	leave  
  405ad6:	c3                   	ret    
  405ad7:	90                   	nop
  405ad8:	8a 46 03             	mov    0x3(%esi),%al
  405adb:	88 47 03             	mov    %al,0x3(%edi)
  405ade:	8b 45 08             	mov    0x8(%ebp),%eax
  405ae1:	5e                   	pop    %esi
  405ae2:	5f                   	pop    %edi
  405ae3:	c9                   	leave  
  405ae4:	c3                   	ret    
  405ae5:	8d 49 00             	lea    0x0(%ecx),%ecx
  405ae8:	8a 46 03             	mov    0x3(%esi),%al
  405aeb:	88 47 03             	mov    %al,0x3(%edi)
  405aee:	8a 46 02             	mov    0x2(%esi),%al
  405af1:	88 47 02             	mov    %al,0x2(%edi)
  405af4:	8b 45 08             	mov    0x8(%ebp),%eax
  405af7:	5e                   	pop    %esi
  405af8:	5f                   	pop    %edi
  405af9:	c9                   	leave  
  405afa:	c3                   	ret    
  405afb:	90                   	nop
  405afc:	8a 46 03             	mov    0x3(%esi),%al
  405aff:	88 47 03             	mov    %al,0x3(%edi)
  405b02:	8a 46 02             	mov    0x2(%esi),%al
  405b05:	88 47 02             	mov    %al,0x2(%edi)
  405b08:	8a 46 01             	mov    0x1(%esi),%al
  405b0b:	88 47 01             	mov    %al,0x1(%edi)
  405b0e:	8b 45 08             	mov    0x8(%ebp),%eax
  405b11:	5e                   	pop    %esi
  405b12:	5f                   	pop    %edi
  405b13:	c9                   	leave  
  405b14:	c3                   	ret    
  405b15:	55                   	push   %ebp
  405b16:	8b ec                	mov    %esp,%ebp
  405b18:	b8 04 10 00 00       	mov    $0x1004,%eax
  405b1d:	e8 6e 06 00 00       	call   0x406190
  405b22:	53                   	push   %ebx
  405b23:	56                   	push   %esi
  405b24:	33 f6                	xor    %esi,%esi
  405b26:	6a 01                	push   $0x1
  405b28:	56                   	push   %esi
  405b29:	ff 75 08             	pushl  0x8(%ebp)
  405b2c:	e8 bf f2 ff ff       	call   0x404df0
  405b31:	83 cb ff             	or     $0xffffffff,%ebx
  405b34:	83 c4 0c             	add    $0xc,%esp
  405b37:	3b c3                	cmp    %ebx,%eax
  405b39:	89 45 fc             	mov    %eax,-0x4(%ebp)
  405b3c:	0f 84 f2 00 00 00    	je     0x405c34
  405b42:	6a 02                	push   $0x2
  405b44:	56                   	push   %esi
  405b45:	ff 75 08             	pushl  0x8(%ebp)
  405b48:	e8 a3 f2 ff ff       	call   0x404df0
  405b4d:	83 c4 0c             	add    $0xc,%esp
  405b50:	3b c3                	cmp    %ebx,%eax
  405b52:	0f 84 dc 00 00 00    	je     0x405c34
  405b58:	57                   	push   %edi
  405b59:	8b 7d 0c             	mov    0xc(%ebp),%edi
  405b5c:	2b f8                	sub    %eax,%edi
  405b5e:	85 ff                	test   %edi,%edi
  405b60:	7e 75                	jle    0x405bd7
  405b62:	bb 00 10 00 00       	mov    $0x1000,%ebx
  405b67:	8d 85 fc ef ff ff    	lea    -0x1004(%ebp),%eax
  405b6d:	53                   	push   %ebx
  405b6e:	56                   	push   %esi
  405b6f:	50                   	push   %eax
  405b70:	e8 7b b8 ff ff       	call   0x4013f0
  405b75:	68 00 80 00 00       	push   $0x8000
  405b7a:	ff 75 08             	pushl  0x8(%ebp)
  405b7d:	e8 a8 05 00 00       	call   0x40612a
  405b82:	83 c4 14             	add    $0x14,%esp
  405b85:	89 45 0c             	mov    %eax,0xc(%ebp)
  405b88:	3b fb                	cmp    %ebx,%edi
  405b8a:	8b c3                	mov    %ebx,%eax
  405b8c:	7d 02                	jge    0x405b90
  405b8e:	8b c7                	mov    %edi,%eax
  405b90:	50                   	push   %eax
  405b91:	8d 85 fc ef ff ff    	lea    -0x1004(%ebp),%eax
  405b97:	50                   	push   %eax
  405b98:	ff 75 08             	pushl  0x8(%ebp)
  405b9b:	e8 1c f0 ff ff       	call   0x404bbc
  405ba0:	83 c4 0c             	add    $0xc,%esp
  405ba3:	83 f8 ff             	cmp    $0xffffffff,%eax
  405ba6:	74 08                	je     0x405bb0
  405ba8:	2b f8                	sub    %eax,%edi
  405baa:	85 ff                	test   %edi,%edi
  405bac:	7e 1a                	jle    0x405bc8
  405bae:	eb d8                	jmp    0x405b88
  405bb0:	e8 25 ec ff ff       	call   0x4047da
  405bb5:	83 38 05             	cmpl   $0x5,(%eax)
  405bb8:	75 0b                	jne    0x405bc5
  405bba:	e8 12 ec ff ff       	call   0x4047d1
  405bbf:	c7 00 0d 00 00 00    	movl   $0xd,(%eax)
  405bc5:	83 ce ff             	or     $0xffffffff,%esi
  405bc8:	ff 75 0c             	pushl  0xc(%ebp)
  405bcb:	ff 75 08             	pushl  0x8(%ebp)
  405bce:	e8 57 05 00 00       	call   0x40612a
  405bd3:	59                   	pop    %ecx
  405bd4:	59                   	pop    %ecx
  405bd5:	eb 48                	jmp    0x405c1f
  405bd7:	7d 46                	jge    0x405c1f
  405bd9:	6a 00                	push   $0x0
  405bdb:	ff 75 0c             	pushl  0xc(%ebp)
  405bde:	ff 75 08             	pushl  0x8(%ebp)
  405be1:	e8 0a f2 ff ff       	call   0x404df0
  405be6:	ff 75 08             	pushl  0x8(%ebp)
  405be9:	e8 13 ee ff ff       	call   0x404a01
  405bee:	83 c4 10             	add    $0x10,%esp
  405bf1:	50                   	push   %eax
  405bf2:	ff 15 c0 70 40 00    	call   *0x4070c0
  405bf8:	8b f0                	mov    %eax,%esi
  405bfa:	f7 de                	neg    %esi
  405bfc:	1b f6                	sbb    %esi,%esi
  405bfe:	f7 de                	neg    %esi
  405c00:	4e                   	dec    %esi
  405c01:	3b f3                	cmp    %ebx,%esi
  405c03:	75 1a                	jne    0x405c1f
  405c05:	e8 c7 eb ff ff       	call   0x4047d1
  405c0a:	c7 00 0d 00 00 00    	movl   $0xd,(%eax)
  405c10:	ff 15 18 70 40 00    	call   *0x407018
  405c16:	8b f8                	mov    %eax,%edi
  405c18:	e8 bd eb ff ff       	call   0x4047da
  405c1d:	89 38                	mov    %edi,(%eax)
  405c1f:	6a 00                	push   $0x0
  405c21:	ff 75 fc             	pushl  -0x4(%ebp)
  405c24:	ff 75 08             	pushl  0x8(%ebp)
  405c27:	e8 c4 f1 ff ff       	call   0x404df0
  405c2c:	83 c4 0c             	add    $0xc,%esp
  405c2f:	8b c6                	mov    %esi,%eax
  405c31:	5f                   	pop    %edi
  405c32:	eb 02                	jmp    0x405c36
  405c34:	8b c3                	mov    %ebx,%eax
  405c36:	5e                   	pop    %esi
  405c37:	5b                   	pop    %ebx
  405c38:	c9                   	leave  
  405c39:	c3                   	ret    
  405c3a:	55                   	push   %ebp
  405c3b:	8b ec                	mov    %esp,%ebp
  405c3d:	6a ff                	push   $0xffffffff
  405c3f:	68 98 74 40 00       	push   $0x407498
  405c44:	68 9c 38 40 00       	push   $0x40389c
  405c49:	64 a1 00 00 00 00    	mov    %fs:0x0,%eax
  405c4f:	50                   	push   %eax
  405c50:	64 89 25 00 00 00 00 	mov    %esp,%fs:0x0
  405c57:	83 ec 1c             	sub    $0x1c,%esp
  405c5a:	53                   	push   %ebx
  405c5b:	56                   	push   %esi
  405c5c:	57                   	push   %edi
  405c5d:	89 65 e8             	mov    %esp,-0x18(%ebp)
  405c60:	33 ff                	xor    %edi,%edi
  405c62:	39 3d 74 8f 40 00    	cmp    %edi,0x408f74
  405c68:	75 46                	jne    0x405cb0
  405c6a:	57                   	push   %edi
  405c6b:	57                   	push   %edi
  405c6c:	6a 01                	push   $0x1
  405c6e:	5b                   	pop    %ebx
  405c6f:	53                   	push   %ebx
  405c70:	68 90 74 40 00       	push   $0x407490
  405c75:	be 00 01 00 00       	mov    $0x100,%esi
  405c7a:	56                   	push   %esi
  405c7b:	57                   	push   %edi
  405c7c:	ff 15 cc 70 40 00    	call   *0x4070cc
  405c82:	85 c0                	test   %eax,%eax
  405c84:	74 08                	je     0x405c8e
  405c86:	89 1d 74 8f 40 00    	mov    %ebx,0x408f74
  405c8c:	eb 22                	jmp    0x405cb0
  405c8e:	57                   	push   %edi
  405c8f:	57                   	push   %edi
  405c90:	53                   	push   %ebx
  405c91:	68 8c 74 40 00       	push   $0x40748c
  405c96:	56                   	push   %esi
  405c97:	57                   	push   %edi
  405c98:	ff 15 c8 70 40 00    	call   *0x4070c8
  405c9e:	85 c0                	test   %eax,%eax
  405ca0:	0f 84 22 01 00 00    	je     0x405dc8
  405ca6:	c7 05 74 8f 40 00 02 	movl   $0x2,0x408f74
  405cad:	00 00 00 
  405cb0:	39 7d 14             	cmp    %edi,0x14(%ebp)
  405cb3:	7e 10                	jle    0x405cc5
  405cb5:	ff 75 14             	pushl  0x14(%ebp)
  405cb8:	ff 75 10             	pushl  0x10(%ebp)
  405cbb:	e8 9e 01 00 00       	call   0x405e5e
  405cc0:	59                   	pop    %ecx
  405cc1:	59                   	pop    %ecx
  405cc2:	89 45 14             	mov    %eax,0x14(%ebp)
  405cc5:	a1 74 8f 40 00       	mov    0x408f74,%eax
  405cca:	83 f8 02             	cmp    $0x2,%eax
  405ccd:	75 1d                	jne    0x405cec
  405ccf:	ff 75 1c             	pushl  0x1c(%ebp)
  405cd2:	ff 75 18             	pushl  0x18(%ebp)
  405cd5:	ff 75 14             	pushl  0x14(%ebp)
  405cd8:	ff 75 10             	pushl  0x10(%ebp)
  405cdb:	ff 75 0c             	pushl  0xc(%ebp)
  405cde:	ff 75 08             	pushl  0x8(%ebp)
  405ce1:	ff 15 c8 70 40 00    	call   *0x4070c8
  405ce7:	e9 de 00 00 00       	jmp    0x405dca
  405cec:	83 f8 01             	cmp    $0x1,%eax
  405cef:	0f 85 d3 00 00 00    	jne    0x405dc8
  405cf5:	39 7d 20             	cmp    %edi,0x20(%ebp)
  405cf8:	75 08                	jne    0x405d02
  405cfa:	a1 68 8f 40 00       	mov    0x408f68,%eax
  405cff:	89 45 20             	mov    %eax,0x20(%ebp)
  405d02:	57                   	push   %edi
  405d03:	57                   	push   %edi
  405d04:	ff 75 14             	pushl  0x14(%ebp)
  405d07:	ff 75 10             	pushl  0x10(%ebp)
  405d0a:	8b 45 24             	mov    0x24(%ebp),%eax
  405d0d:	f7 d8                	neg    %eax
  405d0f:	1b c0                	sbb    %eax,%eax
  405d11:	83 e0 08             	and    $0x8,%eax
  405d14:	40                   	inc    %eax
  405d15:	50                   	push   %eax
  405d16:	ff 75 20             	pushl  0x20(%ebp)
  405d19:	ff 15 c4 70 40 00    	call   *0x4070c4
  405d1f:	8b d8                	mov    %eax,%ebx
  405d21:	89 5d e4             	mov    %ebx,-0x1c(%ebp)
  405d24:	3b df                	cmp    %edi,%ebx
  405d26:	0f 84 9c 00 00 00    	je     0x405dc8
  405d2c:	89 7d fc             	mov    %edi,-0x4(%ebp)
  405d2f:	8d 04 1b             	lea    (%ebx,%ebx,1),%eax
  405d32:	83 c0 03             	add    $0x3,%eax
  405d35:	24 fc                	and    $0xfc,%al
  405d37:	e8 54 04 00 00       	call   0x406190
  405d3c:	89 65 e8             	mov    %esp,-0x18(%ebp)
  405d3f:	8b c4                	mov    %esp,%eax
  405d41:	89 45 dc             	mov    %eax,-0x24(%ebp)
  405d44:	83 4d fc ff          	orl    $0xffffffff,-0x4(%ebp)
  405d48:	eb 13                	jmp    0x405d5d
  405d4a:	6a 01                	push   $0x1
  405d4c:	58                   	pop    %eax
  405d4d:	c3                   	ret    
  405d4e:	8b 65 e8             	mov    -0x18(%ebp),%esp
  405d51:	33 ff                	xor    %edi,%edi
  405d53:	89 7d dc             	mov    %edi,-0x24(%ebp)
  405d56:	83 4d fc ff          	orl    $0xffffffff,-0x4(%ebp)
  405d5a:	8b 5d e4             	mov    -0x1c(%ebp),%ebx
  405d5d:	39 7d dc             	cmp    %edi,-0x24(%ebp)
  405d60:	74 66                	je     0x405dc8
  405d62:	53                   	push   %ebx
  405d63:	ff 75 dc             	pushl  -0x24(%ebp)
  405d66:	ff 75 14             	pushl  0x14(%ebp)
  405d69:	ff 75 10             	pushl  0x10(%ebp)
  405d6c:	6a 01                	push   $0x1
  405d6e:	ff 75 20             	pushl  0x20(%ebp)
  405d71:	ff 15 c4 70 40 00    	call   *0x4070c4
  405d77:	85 c0                	test   %eax,%eax
  405d79:	74 4d                	je     0x405dc8
  405d7b:	57                   	push   %edi
  405d7c:	57                   	push   %edi
  405d7d:	53                   	push   %ebx
  405d7e:	ff 75 dc             	pushl  -0x24(%ebp)
  405d81:	ff 75 0c             	pushl  0xc(%ebp)
  405d84:	ff 75 08             	pushl  0x8(%ebp)
  405d87:	ff 15 cc 70 40 00    	call   *0x4070cc
  405d8d:	8b f0                	mov    %eax,%esi
  405d8f:	89 75 d8             	mov    %esi,-0x28(%ebp)
  405d92:	3b f7                	cmp    %edi,%esi
  405d94:	74 32                	je     0x405dc8
  405d96:	f6 45 0d 04          	testb  $0x4,0xd(%ebp)
  405d9a:	74 40                	je     0x405ddc
  405d9c:	39 7d 1c             	cmp    %edi,0x1c(%ebp)
  405d9f:	0f 84 b2 00 00 00    	je     0x405e57
  405da5:	3b 75 1c             	cmp    0x1c(%ebp),%esi
  405da8:	7f 1e                	jg     0x405dc8
  405daa:	ff 75 1c             	pushl  0x1c(%ebp)
  405dad:	ff 75 18             	pushl  0x18(%ebp)
  405db0:	53                   	push   %ebx
  405db1:	ff 75 dc             	pushl  -0x24(%ebp)
  405db4:	ff 75 0c             	pushl  0xc(%ebp)
  405db7:	ff 75 08             	pushl  0x8(%ebp)
  405dba:	ff 15 cc 70 40 00    	call   *0x4070cc
  405dc0:	85 c0                	test   %eax,%eax
  405dc2:	0f 85 8f 00 00 00    	jne    0x405e57
  405dc8:	33 c0                	xor    %eax,%eax
  405dca:	8d 65 c8             	lea    -0x38(%ebp),%esp
  405dcd:	8b 4d f0             	mov    -0x10(%ebp),%ecx
  405dd0:	64 89 0d 00 00 00 00 	mov    %ecx,%fs:0x0
  405dd7:	5f                   	pop    %edi
  405dd8:	5e                   	pop    %esi
  405dd9:	5b                   	pop    %ebx
  405dda:	c9                   	leave  
  405ddb:	c3                   	ret    
  405ddc:	c7 45 fc 01 00 00 00 	movl   $0x1,-0x4(%ebp)
  405de3:	8d 04 36             	lea    (%esi,%esi,1),%eax
  405de6:	83 c0 03             	add    $0x3,%eax
  405de9:	24 fc                	and    $0xfc,%al
  405deb:	e8 a0 03 00 00       	call   0x406190
  405df0:	89 65 e8             	mov    %esp,-0x18(%ebp)
  405df3:	8b dc                	mov    %esp,%ebx
  405df5:	89 5d e0             	mov    %ebx,-0x20(%ebp)
  405df8:	83 4d fc ff          	orl    $0xffffffff,-0x4(%ebp)
  405dfc:	eb 12                	jmp    0x405e10
  405dfe:	6a 01                	push   $0x1
  405e00:	58                   	pop    %eax
  405e01:	c3                   	ret    
  405e02:	8b 65 e8             	mov    -0x18(%ebp),%esp
  405e05:	33 ff                	xor    %edi,%edi
  405e07:	33 db                	xor    %ebx,%ebx
  405e09:	83 4d fc ff          	orl    $0xffffffff,-0x4(%ebp)
  405e0d:	8b 75 d8             	mov    -0x28(%ebp),%esi
  405e10:	3b df                	cmp    %edi,%ebx
  405e12:	74 b4                	je     0x405dc8
  405e14:	56                   	push   %esi
  405e15:	53                   	push   %ebx
  405e16:	ff 75 e4             	pushl  -0x1c(%ebp)
  405e19:	ff 75 dc             	pushl  -0x24(%ebp)
  405e1c:	ff 75 0c             	pushl  0xc(%ebp)
  405e1f:	ff 75 08             	pushl  0x8(%ebp)
  405e22:	ff 15 cc 70 40 00    	call   *0x4070cc
  405e28:	85 c0                	test   %eax,%eax
  405e2a:	74 9c                	je     0x405dc8
  405e2c:	39 7d 1c             	cmp    %edi,0x1c(%ebp)
  405e2f:	57                   	push   %edi
  405e30:	57                   	push   %edi
  405e31:	75 04                	jne    0x405e37
  405e33:	57                   	push   %edi
  405e34:	57                   	push   %edi
  405e35:	eb 06                	jmp    0x405e3d
  405e37:	ff 75 1c             	pushl  0x1c(%ebp)
  405e3a:	ff 75 18             	pushl  0x18(%ebp)
  405e3d:	56                   	push   %esi
  405e3e:	53                   	push   %ebx
  405e3f:	68 20 02 00 00       	push   $0x220
  405e44:	ff 75 20             	pushl  0x20(%ebp)
  405e47:	ff 15 40 70 40 00    	call   *0x407040
  405e4d:	8b f0                	mov    %eax,%esi
  405e4f:	3b f7                	cmp    %edi,%esi
  405e51:	0f 84 71 ff ff ff    	je     0x405dc8
  405e57:	8b c6                	mov    %esi,%eax
  405e59:	e9 6c ff ff ff       	jmp    0x405dca
  405e5e:	8b 54 24 08          	mov    0x8(%esp),%edx
  405e62:	8b 44 24 04          	mov    0x4(%esp),%eax
  405e66:	85 d2                	test   %edx,%edx
  405e68:	56                   	push   %esi
  405e69:	8d 4a ff             	lea    -0x1(%edx),%ecx
  405e6c:	74 0d                	je     0x405e7b
  405e6e:	80 38 00             	cmpb   $0x0,(%eax)
  405e71:	74 08                	je     0x405e7b
  405e73:	40                   	inc    %eax
  405e74:	8b f1                	mov    %ecx,%esi
  405e76:	49                   	dec    %ecx
  405e77:	85 f6                	test   %esi,%esi
  405e79:	75 f3                	jne    0x405e6e
  405e7b:	80 38 00             	cmpb   $0x0,(%eax)
  405e7e:	5e                   	pop    %esi
  405e7f:	75 05                	jne    0x405e86
  405e81:	2b 44 24 04          	sub    0x4(%esp),%eax
  405e85:	c3                   	ret    
  405e86:	8b c2                	mov    %edx,%eax
  405e88:	c3                   	ret    
  405e89:	55                   	push   %ebp
  405e8a:	8b ec                	mov    %esp,%ebp
  405e8c:	6a ff                	push   $0xffffffff
  405e8e:	68 b0 74 40 00       	push   $0x4074b0
  405e93:	68 9c 38 40 00       	push   $0x40389c
  405e98:	64 a1 00 00 00 00    	mov    %fs:0x0,%eax
  405e9e:	50                   	push   %eax
  405e9f:	64 89 25 00 00 00 00 	mov    %esp,%fs:0x0
  405ea6:	83 ec 18             	sub    $0x18,%esp
  405ea9:	53                   	push   %ebx
  405eaa:	56                   	push   %esi
  405eab:	57                   	push   %edi
  405eac:	89 65 e8             	mov    %esp,-0x18(%ebp)
  405eaf:	a1 78 8f 40 00       	mov    0x408f78,%eax
  405eb4:	33 db                	xor    %ebx,%ebx
  405eb6:	3b c3                	cmp    %ebx,%eax
  405eb8:	75 3e                	jne    0x405ef8
  405eba:	8d 45 e4             	lea    -0x1c(%ebp),%eax
  405ebd:	50                   	push   %eax
  405ebe:	6a 01                	push   $0x1
  405ec0:	5e                   	pop    %esi
  405ec1:	56                   	push   %esi
  405ec2:	68 90 74 40 00       	push   $0x407490
  405ec7:	56                   	push   %esi
  405ec8:	ff 15 d4 70 40 00    	call   *0x4070d4
  405ece:	85 c0                	test   %eax,%eax
  405ed0:	74 04                	je     0x405ed6
  405ed2:	8b c6                	mov    %esi,%eax
  405ed4:	eb 1d                	jmp    0x405ef3
  405ed6:	8d 45 e4             	lea    -0x1c(%ebp),%eax
  405ed9:	50                   	push   %eax
  405eda:	56                   	push   %esi
  405edb:	68 8c 74 40 00       	push   $0x40748c
  405ee0:	56                   	push   %esi
  405ee1:	53                   	push   %ebx
  405ee2:	ff 15 d0 70 40 00    	call   *0x4070d0
  405ee8:	85 c0                	test   %eax,%eax
  405eea:	0f 84 ce 00 00 00    	je     0x405fbe
  405ef0:	6a 02                	push   $0x2
  405ef2:	58                   	pop    %eax
  405ef3:	a3 78 8f 40 00       	mov    %eax,0x408f78
  405ef8:	83 f8 02             	cmp    $0x2,%eax
  405efb:	75 24                	jne    0x405f21
  405efd:	8b 45 1c             	mov    0x1c(%ebp),%eax
  405f00:	3b c3                	cmp    %ebx,%eax
  405f02:	75 05                	jne    0x405f09
  405f04:	a1 58 8f 40 00       	mov    0x408f58,%eax
  405f09:	ff 75 14             	pushl  0x14(%ebp)
  405f0c:	ff 75 10             	pushl  0x10(%ebp)
  405f0f:	ff 75 0c             	pushl  0xc(%ebp)
  405f12:	ff 75 08             	pushl  0x8(%ebp)
  405f15:	50                   	push   %eax
  405f16:	ff 15 d0 70 40 00    	call   *0x4070d0
  405f1c:	e9 9f 00 00 00       	jmp    0x405fc0
  405f21:	83 f8 01             	cmp    $0x1,%eax
  405f24:	0f 85 94 00 00 00    	jne    0x405fbe
  405f2a:	39 5d 18             	cmp    %ebx,0x18(%ebp)
  405f2d:	75 08                	jne    0x405f37
  405f2f:	a1 68 8f 40 00       	mov    0x408f68,%eax
  405f34:	89 45 18             	mov    %eax,0x18(%ebp)
  405f37:	53                   	push   %ebx
  405f38:	53                   	push   %ebx
  405f39:	ff 75 10             	pushl  0x10(%ebp)
  405f3c:	ff 75 0c             	pushl  0xc(%ebp)
  405f3f:	8b 45 20             	mov    0x20(%ebp),%eax
  405f42:	f7 d8                	neg    %eax
  405f44:	1b c0                	sbb    %eax,%eax
  405f46:	83 e0 08             	and    $0x8,%eax
  405f49:	40                   	inc    %eax
  405f4a:	50                   	push   %eax
  405f4b:	ff 75 18             	pushl  0x18(%ebp)
  405f4e:	ff 15 c4 70 40 00    	call   *0x4070c4
  405f54:	89 45 e0             	mov    %eax,-0x20(%ebp)
  405f57:	3b c3                	cmp    %ebx,%eax
  405f59:	74 63                	je     0x405fbe
  405f5b:	89 5d fc             	mov    %ebx,-0x4(%ebp)
  405f5e:	8d 3c 00             	lea    (%eax,%eax,1),%edi
  405f61:	8b c7                	mov    %edi,%eax
  405f63:	83 c0 03             	add    $0x3,%eax
  405f66:	24 fc                	and    $0xfc,%al
  405f68:	e8 23 02 00 00       	call   0x406190
  405f6d:	89 65 e8             	mov    %esp,-0x18(%ebp)
  405f70:	8b f4                	mov    %esp,%esi
  405f72:	89 75 dc             	mov    %esi,-0x24(%ebp)
  405f75:	57                   	push   %edi
  405f76:	53                   	push   %ebx
  405f77:	56                   	push   %esi
  405f78:	e8 73 b4 ff ff       	call   0x4013f0
  405f7d:	83 c4 0c             	add    $0xc,%esp
  405f80:	eb 0b                	jmp    0x405f8d
  405f82:	6a 01                	push   $0x1
  405f84:	58                   	pop    %eax
  405f85:	c3                   	ret    
  405f86:	8b 65 e8             	mov    -0x18(%ebp),%esp
  405f89:	33 db                	xor    %ebx,%ebx
  405f8b:	33 f6                	xor    %esi,%esi
  405f8d:	83 4d fc ff          	orl    $0xffffffff,-0x4(%ebp)
  405f91:	3b f3                	cmp    %ebx,%esi
  405f93:	74 29                	je     0x405fbe
  405f95:	ff 75 e0             	pushl  -0x20(%ebp)
  405f98:	56                   	push   %esi
  405f99:	ff 75 10             	pushl  0x10(%ebp)
  405f9c:	ff 75 0c             	pushl  0xc(%ebp)
  405f9f:	6a 01                	push   $0x1
  405fa1:	ff 75 18             	pushl  0x18(%ebp)
  405fa4:	ff 15 c4 70 40 00    	call   *0x4070c4
  405faa:	3b c3                	cmp    %ebx,%eax
  405fac:	74 10                	je     0x405fbe
  405fae:	ff 75 14             	pushl  0x14(%ebp)
  405fb1:	50                   	push   %eax
  405fb2:	56                   	push   %esi
  405fb3:	ff 75 08             	pushl  0x8(%ebp)
  405fb6:	ff 15 d4 70 40 00    	call   *0x4070d4
  405fbc:	eb 02                	jmp    0x405fc0
  405fbe:	33 c0                	xor    %eax,%eax
  405fc0:	8d 65 cc             	lea    -0x34(%ebp),%esp
  405fc3:	8b 4d f0             	mov    -0x10(%ebp),%ecx
  405fc6:	64 89 0d 00 00 00 00 	mov    %ecx,%fs:0x0
  405fcd:	5f                   	pop    %edi
  405fce:	5e                   	pop    %esi
  405fcf:	5b                   	pop    %ebx
  405fd0:	c9                   	leave  
  405fd1:	c3                   	ret    
  405fd2:	cc                   	int3   
  405fd3:	cc                   	int3   
  405fd4:	cc                   	int3   
  405fd5:	cc                   	int3   
  405fd6:	cc                   	int3   
  405fd7:	cc                   	int3   
  405fd8:	cc                   	int3   
  405fd9:	cc                   	int3   
  405fda:	cc                   	int3   
  405fdb:	cc                   	int3   
  405fdc:	cc                   	int3   
  405fdd:	cc                   	int3   
  405fde:	cc                   	int3   
  405fdf:	cc                   	int3   
  405fe0:	8b 54 24 04          	mov    0x4(%esp),%edx
  405fe4:	8b 4c 24 08          	mov    0x8(%esp),%ecx
  405fe8:	f7 c2 03 00 00 00    	test   $0x3,%edx
  405fee:	75 3c                	jne    0x40602c
  405ff0:	8b 02                	mov    (%edx),%eax
  405ff2:	3a 01                	cmp    (%ecx),%al
  405ff4:	75 2e                	jne    0x406024
  405ff6:	0a c0                	or     %al,%al
  405ff8:	74 26                	je     0x406020
  405ffa:	3a 61 01             	cmp    0x1(%ecx),%ah
  405ffd:	75 25                	jne    0x406024
  405fff:	0a e4                	or     %ah,%ah
  406001:	74 1d                	je     0x406020
  406003:	c1 e8 10             	shr    $0x10,%eax
  406006:	3a 41 02             	cmp    0x2(%ecx),%al
  406009:	75 19                	jne    0x406024
  40600b:	0a c0                	or     %al,%al
  40600d:	74 11                	je     0x406020
  40600f:	3a 61 03             	cmp    0x3(%ecx),%ah
  406012:	75 10                	jne    0x406024
  406014:	83 c1 04             	add    $0x4,%ecx
  406017:	83 c2 04             	add    $0x4,%edx
  40601a:	0a e4                	or     %ah,%ah
  40601c:	75 d2                	jne    0x405ff0
  40601e:	8b ff                	mov    %edi,%edi
  406020:	33 c0                	xor    %eax,%eax
  406022:	c3                   	ret    
  406023:	90                   	nop
  406024:	1b c0                	sbb    %eax,%eax
  406026:	d1 e0                	shl    %eax
  406028:	40                   	inc    %eax
  406029:	c3                   	ret    
  40602a:	8b ff                	mov    %edi,%edi
  40602c:	f7 c2 01 00 00 00    	test   $0x1,%edx
  406032:	74 14                	je     0x406048
  406034:	8a 02                	mov    (%edx),%al
  406036:	42                   	inc    %edx
  406037:	3a 01                	cmp    (%ecx),%al
  406039:	75 e9                	jne    0x406024
  40603b:	41                   	inc    %ecx
  40603c:	0a c0                	or     %al,%al
  40603e:	74 e0                	je     0x406020
  406040:	f7 c2 02 00 00 00    	test   $0x2,%edx
  406046:	74 a8                	je     0x405ff0
  406048:	66 8b 02             	mov    (%edx),%ax
  40604b:	83 c2 02             	add    $0x2,%edx
  40604e:	3a 01                	cmp    (%ecx),%al
  406050:	75 d2                	jne    0x406024
  406052:	0a c0                	or     %al,%al
  406054:	74 ca                	je     0x406020
  406056:	3a 61 01             	cmp    0x1(%ecx),%ah
  406059:	75 c9                	jne    0x406024
  40605b:	0a e4                	or     %ah,%ah
  40605d:	74 c1                	je     0x406020
  40605f:	83 c1 02             	add    $0x2,%ecx
  406062:	eb 8c                	jmp    0x405ff0
  406064:	cc                   	int3   
  406065:	cc                   	int3   
  406066:	cc                   	int3   
  406067:	cc                   	int3   
  406068:	cc                   	int3   
  406069:	cc                   	int3   
  40606a:	cc                   	int3   
  40606b:	cc                   	int3   
  40606c:	cc                   	int3   
  40606d:	cc                   	int3   
  40606e:	cc                   	int3   
  40606f:	cc                   	int3   
  406070:	55                   	push   %ebp
  406071:	8b ec                	mov    %esp,%ebp
  406073:	56                   	push   %esi
  406074:	33 c0                	xor    %eax,%eax
  406076:	50                   	push   %eax
  406077:	50                   	push   %eax
  406078:	50                   	push   %eax
  406079:	50                   	push   %eax
  40607a:	50                   	push   %eax
  40607b:	50                   	push   %eax
  40607c:	50                   	push   %eax
  40607d:	50                   	push   %eax
  40607e:	8b 55 0c             	mov    0xc(%ebp),%edx
  406081:	8d 49 00             	lea    0x0(%ecx),%ecx
  406084:	8a 02                	mov    (%edx),%al
  406086:	0a c0                	or     %al,%al
  406088:	74 07                	je     0x406091
  40608a:	42                   	inc    %edx
  40608b:	0f ab 04 24          	bts    %eax,(%esp)
  40608f:	eb f3                	jmp    0x406084
  406091:	8b 75 08             	mov    0x8(%ebp),%esi
  406094:	83 c9 ff             	or     $0xffffffff,%ecx
  406097:	90                   	nop
  406098:	41                   	inc    %ecx
  406099:	8a 06                	mov    (%esi),%al
  40609b:	0a c0                	or     %al,%al
  40609d:	74 07                	je     0x4060a6
  40609f:	46                   	inc    %esi
  4060a0:	0f a3 04 24          	bt     %eax,(%esp)
  4060a4:	73 f2                	jae    0x406098
  4060a6:	8b c1                	mov    %ecx,%eax
  4060a8:	83 c4 20             	add    $0x20,%esp
  4060ab:	5e                   	pop    %esi
  4060ac:	c9                   	leave  
  4060ad:	c3                   	ret    
  4060ae:	cc                   	int3   
  4060af:	cc                   	int3   
  4060b0:	55                   	push   %ebp
  4060b1:	8b ec                	mov    %esp,%ebp
  4060b3:	57                   	push   %edi
  4060b4:	56                   	push   %esi
  4060b5:	53                   	push   %ebx
  4060b6:	8b 4d 10             	mov    0x10(%ebp),%ecx
  4060b9:	e3 26                	jecxz  0x4060e1
  4060bb:	8b d9                	mov    %ecx,%ebx
  4060bd:	8b 7d 08             	mov    0x8(%ebp),%edi
  4060c0:	8b f7                	mov    %edi,%esi
  4060c2:	33 c0                	xor    %eax,%eax
  4060c4:	f2 ae                	repnz scas %es:(%edi),%al
  4060c6:	f7 d9                	neg    %ecx
  4060c8:	03 cb                	add    %ebx,%ecx
  4060ca:	8b fe                	mov    %esi,%edi
  4060cc:	8b 75 0c             	mov    0xc(%ebp),%esi
  4060cf:	f3 a6                	repz cmpsb %es:(%edi),%ds:(%esi)
  4060d1:	8a 46 ff             	mov    -0x1(%esi),%al
  4060d4:	33 c9                	xor    %ecx,%ecx
  4060d6:	3a 47 ff             	cmp    -0x1(%edi),%al
  4060d9:	77 04                	ja     0x4060df
  4060db:	74 04                	je     0x4060e1
  4060dd:	49                   	dec    %ecx
  4060de:	49                   	dec    %ecx
  4060df:	f7 d1                	not    %ecx
  4060e1:	8b c1                	mov    %ecx,%eax
  4060e3:	5b                   	pop    %ebx
  4060e4:	5e                   	pop    %esi
  4060e5:	5f                   	pop    %edi
  4060e6:	c9                   	leave  
  4060e7:	c3                   	ret    
  4060e8:	cc                   	int3   
  4060e9:	cc                   	int3   
  4060ea:	cc                   	int3   
  4060eb:	cc                   	int3   
  4060ec:	cc                   	int3   
  4060ed:	cc                   	int3   
  4060ee:	cc                   	int3   
  4060ef:	cc                   	int3   
  4060f0:	55                   	push   %ebp
  4060f1:	8b ec                	mov    %esp,%ebp
  4060f3:	56                   	push   %esi
  4060f4:	33 c0                	xor    %eax,%eax
  4060f6:	50                   	push   %eax
  4060f7:	50                   	push   %eax
  4060f8:	50                   	push   %eax
  4060f9:	50                   	push   %eax
  4060fa:	50                   	push   %eax
  4060fb:	50                   	push   %eax
  4060fc:	50                   	push   %eax
  4060fd:	50                   	push   %eax
  4060fe:	8b 55 0c             	mov    0xc(%ebp),%edx
  406101:	8d 49 00             	lea    0x0(%ecx),%ecx
  406104:	8a 02                	mov    (%edx),%al
  406106:	0a c0                	or     %al,%al
  406108:	74 07                	je     0x406111
  40610a:	42                   	inc    %edx
  40610b:	0f ab 04 24          	bts    %eax,(%esp)
  40610f:	eb f3                	jmp    0x406104
  406111:	8b 75 08             	mov    0x8(%ebp),%esi
  406114:	8a 06                	mov    (%esi),%al
  406116:	0a c0                	or     %al,%al
  406118:	74 0a                	je     0x406124
  40611a:	46                   	inc    %esi
  40611b:	0f a3 04 24          	bt     %eax,(%esp)
  40611f:	73 f3                	jae    0x406114
  406121:	8d 46 ff             	lea    -0x1(%esi),%eax
  406124:	83 c4 20             	add    $0x20,%esp
  406127:	5e                   	pop    %esi
  406128:	c9                   	leave  
  406129:	c3                   	ret    
  40612a:	8b 44 24 04          	mov    0x4(%esp),%eax
  40612e:	56                   	push   %esi
  40612f:	8b c8                	mov    %eax,%ecx
  406131:	83 e0 1f             	and    $0x1f,%eax
  406134:	c1 f9 05             	sar    $0x5,%ecx
  406137:	8d 04 c0             	lea    (%eax,%eax,8),%eax
  40613a:	be 00 80 00 00       	mov    $0x8000,%esi
  40613f:	8b 0c 8d 20 93 40 00 	mov    0x409320(,%ecx,4),%ecx
  406146:	8d 54 81 04          	lea    0x4(%ecx,%eax,4),%edx
  40614a:	8a 4c 81 04          	mov    0x4(%ecx,%eax,4),%cl
  40614e:	8a c1                	mov    %cl,%al
  406150:	25 80 00 00 00       	and    $0x80,%eax
  406155:	39 74 24 0c          	cmp    %esi,0xc(%esp)
  406159:	75 05                	jne    0x406160
  40615b:	80 e1 7f             	and    $0x7f,%cl
  40615e:	eb 0d                	jmp    0x40616d
  406160:	81 7c 24 0c 00 40 00 	cmpl   $0x4000,0xc(%esp)
  406167:	00 
  406168:	75 11                	jne    0x40617b
  40616a:	80 c9 80             	or     $0x80,%cl
  40616d:	f7 d8                	neg    %eax
  40616f:	1b c0                	sbb    %eax,%eax
  406171:	88 0a                	mov    %cl,(%edx)
  406173:	66 25 00 c0          	and    $0xc000,%ax
  406177:	03 c6                	add    %esi,%eax
  406179:	5e                   	pop    %esi
  40617a:	c3                   	ret    
  40617b:	e8 51 e6 ff ff       	call   0x4047d1
  406180:	c7 00 16 00 00 00    	movl   $0x16,(%eax)
  406186:	83 c8 ff             	or     $0xffffffff,%eax
  406189:	5e                   	pop    %esi
  40618a:	c3                   	ret    
  40618b:	cc                   	int3   
  40618c:	cc                   	int3   
  40618d:	cc                   	int3   
  40618e:	cc                   	int3   
  40618f:	cc                   	int3   
  406190:	51                   	push   %ecx
  406191:	3d 00 10 00 00       	cmp    $0x1000,%eax
  406196:	8d 4c 24 08          	lea    0x8(%esp),%ecx
  40619a:	72 14                	jb     0x4061b0
  40619c:	81 e9 00 10 00 00    	sub    $0x1000,%ecx
  4061a2:	2d 00 10 00 00       	sub    $0x1000,%eax
  4061a7:	85 01                	test   %eax,(%ecx)
  4061a9:	3d 00 10 00 00       	cmp    $0x1000,%eax
  4061ae:	73 ec                	jae    0x40619c
  4061b0:	2b c8                	sub    %eax,%ecx
  4061b2:	8b c4                	mov    %esp,%eax
  4061b4:	85 01                	test   %eax,(%ecx)
  4061b6:	8b e1                	mov    %ecx,%esp
  4061b8:	8b 08                	mov    (%eax),%ecx
  4061ba:	8b 40 04             	mov    0x4(%eax),%eax
  4061bd:	50                   	push   %eax
  4061be:	c3                   	ret    
  4061bf:	cc                   	int3   
  4061c0:	55                   	push   %ebp
  4061c1:	8b ec                	mov    %esp,%ebp
  4061c3:	57                   	push   %edi
  4061c4:	56                   	push   %esi
  4061c5:	53                   	push   %ebx
  4061c6:	8b 75 0c             	mov    0xc(%ebp),%esi
  4061c9:	8b 7d 08             	mov    0x8(%ebp),%edi
  4061cc:	8d 05 50 8f 40 00    	lea    0x408f50,%eax
  4061d2:	83 78 08 00          	cmpl   $0x0,0x8(%eax)
  4061d6:	75 3b                	jne    0x406213
  4061d8:	b0 ff                	mov    $0xff,%al
  4061da:	8b ff                	mov    %edi,%edi
  4061dc:	0a c0                	or     %al,%al
  4061de:	74 2e                	je     0x40620e
  4061e0:	8a 06                	mov    (%esi),%al
  4061e2:	46                   	inc    %esi
  4061e3:	8a 27                	mov    (%edi),%ah
  4061e5:	47                   	inc    %edi
  4061e6:	38 c4                	cmp    %al,%ah
  4061e8:	74 f2                	je     0x4061dc
  4061ea:	2c 41                	sub    $0x41,%al
  4061ec:	3c 1a                	cmp    $0x1a,%al
  4061ee:	1a c9                	sbb    %cl,%cl
  4061f0:	80 e1 20             	and    $0x20,%cl
  4061f3:	02 c1                	add    %cl,%al
  4061f5:	04 41                	add    $0x41,%al
  4061f7:	86 e0                	xchg   %ah,%al
  4061f9:	2c 41                	sub    $0x41,%al
  4061fb:	3c 1a                	cmp    $0x1a,%al
  4061fd:	1a c9                	sbb    %cl,%cl
  4061ff:	80 e1 20             	and    $0x20,%cl
  406202:	02 c1                	add    %cl,%al
  406204:	04 41                	add    $0x41,%al
  406206:	38 e0                	cmp    %ah,%al
  406208:	74 d2                	je     0x4061dc
  40620a:	1a c0                	sbb    %al,%al
  40620c:	1c ff                	sbb    $0xff,%al
  40620e:	0f be c0             	movsbl %al,%eax
  406211:	eb 78                	jmp    0x40628b
  406213:	f0 ff 05 bc 90 40 00 	lock incl 0x4090bc
  40621a:	83 3d b8 90 40 00 00 	cmpl   $0x0,0x4090b8
  406221:	7f 04                	jg     0x406227
  406223:	6a 00                	push   $0x0
  406225:	eb 15                	jmp    0x40623c
  406227:	f0 ff 0d bc 90 40 00 	lock decl 0x4090bc
  40622e:	6a 13                	push   $0x13
  406230:	e8 02 da ff ff       	call   0x403c37
  406235:	c7 04 24 01 00 00 00 	movl   $0x1,(%esp)
  40623c:	b8 ff 00 00 00       	mov    $0xff,%eax
  406241:	33 db                	xor    %ebx,%ebx
  406243:	90                   	nop
  406244:	0a c0                	or     %al,%al
  406246:	74 27                	je     0x40626f
  406248:	8a 06                	mov    (%esi),%al
  40624a:	46                   	inc    %esi
  40624b:	8a 1f                	mov    (%edi),%bl
  40624d:	47                   	inc    %edi
  40624e:	38 d8                	cmp    %bl,%al
  406250:	74 f2                	je     0x406244
  406252:	50                   	push   %eax
  406253:	53                   	push   %ebx
  406254:	e8 ad 01 00 00       	call   0x406406
  406259:	8b d8                	mov    %eax,%ebx
  40625b:	83 c4 04             	add    $0x4,%esp
  40625e:	e8 a3 01 00 00       	call   0x406406
  406263:	83 c4 04             	add    $0x4,%esp
  406266:	38 c3                	cmp    %al,%bl
  406268:	74 da                	je     0x406244
  40626a:	1b c0                	sbb    %eax,%eax
  40626c:	83 d8 ff             	sbb    $0xffffffff,%eax
  40626f:	8b d8                	mov    %eax,%ebx
  406271:	58                   	pop    %eax
  406272:	0b c0                	or     %eax,%eax
  406274:	75 09                	jne    0x40627f
  406276:	f0 ff 0d bc 90 40 00 	lock decl 0x4090bc
  40627d:	eb 0a                	jmp    0x406289
  40627f:	6a 13                	push   $0x13
  406281:	e8 12 da ff ff       	call   0x403c98
  406286:	83 c4 04             	add    $0x4,%esp
  406289:	8b c3                	mov    %ebx,%eax
  40628b:	5b                   	pop    %ebx
  40628c:	5e                   	pop    %esi
  40628d:	5f                   	pop    %edi
  40628e:	c9                   	leave  
  40628f:	c3                   	ret    
  406290:	55                   	push   %ebp
  406291:	8b ec                	mov    %esp,%ebp
  406293:	57                   	push   %edi
  406294:	56                   	push   %esi
  406295:	53                   	push   %ebx
  406296:	8b 4d 10             	mov    0x10(%ebp),%ecx
  406299:	0b c9                	or     %ecx,%ecx
  40629b:	0f 84 e9 00 00 00    	je     0x40638a
  4062a1:	8b 75 08             	mov    0x8(%ebp),%esi
  4062a4:	8b 7d 0c             	mov    0xc(%ebp),%edi
  4062a7:	8d 05 50 8f 40 00    	lea    0x408f50,%eax
  4062ad:	83 78 08 00          	cmpl   $0x0,0x8(%eax)
  4062b1:	75 4e                	jne    0x406301
  4062b3:	b7 41                	mov    $0x41,%bh
  4062b5:	b3 5a                	mov    $0x5a,%bl
  4062b7:	b6 20                	mov    $0x20,%dh
  4062b9:	8d 49 00             	lea    0x0(%ecx),%ecx
  4062bc:	8a 26                	mov    (%esi),%ah
  4062be:	0a e4                	or     %ah,%ah
  4062c0:	8a 07                	mov    (%edi),%al
  4062c2:	74 21                	je     0x4062e5
  4062c4:	0a c0                	or     %al,%al
  4062c6:	74 1d                	je     0x4062e5
  4062c8:	46                   	inc    %esi
  4062c9:	47                   	inc    %edi
  4062ca:	38 fc                	cmp    %bh,%ah
  4062cc:	72 06                	jb     0x4062d4
  4062ce:	38 dc                	cmp    %bl,%ah
  4062d0:	77 02                	ja     0x4062d4
  4062d2:	02 e6                	add    %dh,%ah
  4062d4:	38 f8                	cmp    %bh,%al
  4062d6:	72 06                	jb     0x4062de
  4062d8:	38 d8                	cmp    %bl,%al
  4062da:	77 02                	ja     0x4062de
  4062dc:	02 c6                	add    %dh,%al
  4062de:	38 c4                	cmp    %al,%ah
  4062e0:	75 0d                	jne    0x4062ef
  4062e2:	49                   	dec    %ecx
  4062e3:	75 d7                	jne    0x4062bc
  4062e5:	33 c9                	xor    %ecx,%ecx
  4062e7:	38 c4                	cmp    %al,%ah
  4062e9:	0f 84 9b 00 00 00    	je     0x40638a
  4062ef:	b9 ff ff ff ff       	mov    $0xffffffff,%ecx
  4062f4:	0f 82 90 00 00 00    	jb     0x40638a
  4062fa:	f7 d9                	neg    %ecx
  4062fc:	e9 89 00 00 00       	jmp    0x40638a
  406301:	f0 ff 05 bc 90 40 00 	lock incl 0x4090bc
  406308:	83 3d b8 90 40 00 00 	cmpl   $0x0,0x4090b8
  40630f:	7f 04                	jg     0x406315
  406311:	6a 00                	push   $0x0
  406313:	eb 19                	jmp    0x40632e
  406315:	f0 ff 0d bc 90 40 00 	lock decl 0x4090bc
  40631c:	8b d9                	mov    %ecx,%ebx
  40631e:	6a 13                	push   $0x13
  406320:	e8 12 d9 ff ff       	call   0x403c37
  406325:	c7 04 24 01 00 00 00 	movl   $0x1,(%esp)
  40632c:	8b cb                	mov    %ebx,%ecx
  40632e:	33 c0                	xor    %eax,%eax
  406330:	33 db                	xor    %ebx,%ebx
  406332:	8b ff                	mov    %edi,%edi
  406334:	8a 06                	mov    (%esi),%al
  406336:	0b c0                	or     %eax,%eax
  406338:	8a 1f                	mov    (%edi),%bl
  40633a:	74 23                	je     0x40635f
  40633c:	0b db                	or     %ebx,%ebx
  40633e:	74 1f                	je     0x40635f
  406340:	46                   	inc    %esi
  406341:	47                   	inc    %edi
  406342:	51                   	push   %ecx
  406343:	50                   	push   %eax
  406344:	53                   	push   %ebx
  406345:	e8 bc 00 00 00       	call   0x406406
  40634a:	8b d8                	mov    %eax,%ebx
  40634c:	83 c4 04             	add    $0x4,%esp
  40634f:	e8 b2 00 00 00       	call   0x406406
  406354:	83 c4 04             	add    $0x4,%esp
  406357:	59                   	pop    %ecx
  406358:	3b c3                	cmp    %ebx,%eax
  40635a:	75 09                	jne    0x406365
  40635c:	49                   	dec    %ecx
  40635d:	75 d5                	jne    0x406334
  40635f:	33 c9                	xor    %ecx,%ecx
  406361:	3b c3                	cmp    %ebx,%eax
  406363:	74 09                	je     0x40636e
  406365:	b9 ff ff ff ff       	mov    $0xffffffff,%ecx
  40636a:	72 02                	jb     0x40636e
  40636c:	f7 d9                	neg    %ecx
  40636e:	58                   	pop    %eax
  40636f:	0b c0                	or     %eax,%eax
  406371:	75 09                	jne    0x40637c
  406373:	f0 ff 0d bc 90 40 00 	lock decl 0x4090bc
  40637a:	eb 0e                	jmp    0x40638a
  40637c:	8b d9                	mov    %ecx,%ebx
  40637e:	6a 13                	push   $0x13
  406380:	e8 13 d9 ff ff       	call   0x403c98
  406385:	83 c4 04             	add    $0x4,%esp
  406388:	8b cb                	mov    %ebx,%ecx
  40638a:	8b c1                	mov    %ecx,%eax
  40638c:	5b                   	pop    %ebx
  40638d:	5e                   	pop    %esi
  40638e:	5f                   	pop    %edi
  40638f:	c9                   	leave  
  406390:	c3                   	ret    
  406391:	55                   	push   %ebp
  406392:	8b ec                	mov    %esp,%ebp
  406394:	51                   	push   %ecx
  406395:	8b 45 08             	mov    0x8(%ebp),%eax
  406398:	8d 48 01             	lea    0x1(%eax),%ecx
  40639b:	81 f9 00 01 00 00    	cmp    $0x100,%ecx
  4063a1:	77 0c                	ja     0x4063af
  4063a3:	8b 0d 90 85 40 00    	mov    0x408590,%ecx
  4063a9:	0f b7 04 41          	movzwl (%ecx,%eax,2),%eax
  4063ad:	eb 52                	jmp    0x406401
  4063af:	8b c8                	mov    %eax,%ecx
  4063b1:	56                   	push   %esi
  4063b2:	8b 35 90 85 40 00    	mov    0x408590,%esi
  4063b8:	c1 f9 08             	sar    $0x8,%ecx
  4063bb:	0f b6 d1             	movzbl %cl,%edx
  4063be:	f6 44 56 01 80       	testb  $0x80,0x1(%esi,%edx,2)
  4063c3:	5e                   	pop    %esi
  4063c4:	74 0e                	je     0x4063d4
  4063c6:	80 65 fe 00          	andb   $0x0,-0x2(%ebp)
  4063ca:	88 4d fc             	mov    %cl,-0x4(%ebp)
  4063cd:	88 45 fd             	mov    %al,-0x3(%ebp)
  4063d0:	6a 02                	push   $0x2
  4063d2:	eb 09                	jmp    0x4063dd
  4063d4:	80 65 fd 00          	andb   $0x0,-0x3(%ebp)
  4063d8:	88 45 fc             	mov    %al,-0x4(%ebp)
  4063db:	6a 01                	push   $0x1
  4063dd:	58                   	pop    %eax
  4063de:	8d 4d 0a             	lea    0xa(%ebp),%ecx
  4063e1:	6a 01                	push   $0x1
  4063e3:	6a 00                	push   $0x0
  4063e5:	6a 00                	push   $0x0
  4063e7:	51                   	push   %ecx
  4063e8:	50                   	push   %eax
  4063e9:	8d 45 fc             	lea    -0x4(%ebp),%eax
  4063ec:	50                   	push   %eax
  4063ed:	6a 01                	push   $0x1
  4063ef:	e8 95 fa ff ff       	call   0x405e89
  4063f4:	83 c4 1c             	add    $0x1c,%esp
  4063f7:	85 c0                	test   %eax,%eax
  4063f9:	75 02                	jne    0x4063fd
  4063fb:	c9                   	leave  
  4063fc:	c3                   	ret    
  4063fd:	0f b7 45 0a          	movzwl 0xa(%ebp),%eax
  406401:	23 45 0c             	and    0xc(%ebp),%eax
  406404:	c9                   	leave  
  406405:	c3                   	ret    
  406406:	55                   	push   %ebp
  406407:	8b ec                	mov    %esp,%ebp
  406409:	51                   	push   %ecx
  40640a:	83 3d 58 8f 40 00 00 	cmpl   $0x0,0x408f58
  406411:	53                   	push   %ebx
  406412:	56                   	push   %esi
  406413:	57                   	push   %edi
  406414:	75 1d                	jne    0x406433
  406416:	8b 45 08             	mov    0x8(%ebp),%eax
  406419:	83 f8 41             	cmp    $0x41,%eax
  40641c:	0f 8c aa 00 00 00    	jl     0x4064cc
  406422:	83 f8 5a             	cmp    $0x5a,%eax
  406425:	0f 8f a1 00 00 00    	jg     0x4064cc
  40642b:	83 c0 20             	add    $0x20,%eax
  40642e:	e9 99 00 00 00       	jmp    0x4064cc
  406433:	8b 5d 08             	mov    0x8(%ebp),%ebx
  406436:	bf 00 01 00 00       	mov    $0x100,%edi
  40643b:	6a 01                	push   $0x1
  40643d:	3b df                	cmp    %edi,%ebx
  40643f:	5e                   	pop    %esi
  406440:	7d 25                	jge    0x406467
  406442:	39 35 1c 8b 40 00    	cmp    %esi,0x408b1c
  406448:	7e 0b                	jle    0x406455
  40644a:	56                   	push   %esi
  40644b:	53                   	push   %ebx
  40644c:	e8 40 ff ff ff       	call   0x406391
  406451:	59                   	pop    %ecx
  406452:	59                   	pop    %ecx
  406453:	eb 0a                	jmp    0x40645f
  406455:	a1 90 85 40 00       	mov    0x408590,%eax
  40645a:	8a 04 58             	mov    (%eax,%ebx,2),%al
  40645d:	23 c6                	and    %esi,%eax
  40645f:	85 c0                	test   %eax,%eax
  406461:	75 04                	jne    0x406467
  406463:	8b c3                	mov    %ebx,%eax
  406465:	eb 65                	jmp    0x4064cc
  406467:	8b 15 90 85 40 00    	mov    0x408590,%edx
  40646d:	8b c3                	mov    %ebx,%eax
  40646f:	c1 f8 08             	sar    $0x8,%eax
  406472:	0f b6 c8             	movzbl %al,%ecx
  406475:	f6 44 4a 01 80       	testb  $0x80,0x1(%edx,%ecx,2)
  40647a:	74 0f                	je     0x40648b
  40647c:	80 65 0a 00          	andb   $0x0,0xa(%ebp)
  406480:	6a 02                	push   $0x2
  406482:	88 45 08             	mov    %al,0x8(%ebp)
  406485:	88 5d 09             	mov    %bl,0x9(%ebp)
  406488:	58                   	pop    %eax
  406489:	eb 09                	jmp    0x406494
  40648b:	80 65 09 00          	andb   $0x0,0x9(%ebp)
  40648f:	88 5d 08             	mov    %bl,0x8(%ebp)
  406492:	8b c6                	mov    %esi,%eax
  406494:	56                   	push   %esi
  406495:	6a 00                	push   $0x0
  406497:	8d 4d fc             	lea    -0x4(%ebp),%ecx
  40649a:	6a 03                	push   $0x3
  40649c:	51                   	push   %ecx
  40649d:	50                   	push   %eax
  40649e:	8d 45 08             	lea    0x8(%ebp),%eax
  4064a1:	50                   	push   %eax
  4064a2:	57                   	push   %edi
  4064a3:	ff 35 58 8f 40 00    	pushl  0x408f58
  4064a9:	e8 8c f7 ff ff       	call   0x405c3a
  4064ae:	83 c4 20             	add    $0x20,%esp
  4064b1:	85 c0                	test   %eax,%eax
  4064b3:	74 ae                	je     0x406463
  4064b5:	3b c6                	cmp    %esi,%eax
  4064b7:	75 06                	jne    0x4064bf
  4064b9:	0f b6 45 fc          	movzbl -0x4(%ebp),%eax
  4064bd:	eb 0d                	jmp    0x4064cc
  4064bf:	0f b6 45 fd          	movzbl -0x3(%ebp),%eax
  4064c3:	0f b6 4d fc          	movzbl -0x4(%ebp),%ecx
  4064c7:	c1 e0 08             	shl    $0x8,%eax
  4064ca:	0b c1                	or     %ecx,%eax
  4064cc:	5f                   	pop    %edi
  4064cd:	5e                   	pop    %esi
  4064ce:	5b                   	pop    %ebx
  4064cf:	c9                   	leave  
  4064d0:	c3                   	ret    
  4064d1:	cc                   	int3   
  4064d2:	cc                   	int3   
  4064d3:	cc                   	int3   
  4064d4:	cc                   	int3   
  4064d5:	cc                   	int3   
  4064d6:	cc                   	int3   
  4064d7:	cc                   	int3   
  4064d8:	cc                   	int3   
  4064d9:	cc                   	int3   
  4064da:	cc                   	int3   
  4064db:	cc                   	int3   
  4064dc:	cc                   	int3   
  4064dd:	cc                   	int3   
  4064de:	cc                   	int3   
  4064df:	cc                   	int3   
  4064e0:	8b 44 24 08          	mov    0x8(%esp),%eax
  4064e4:	8b 4c 24 10          	mov    0x10(%esp),%ecx
  4064e8:	0b c8                	or     %eax,%ecx
  4064ea:	8b 4c 24 0c          	mov    0xc(%esp),%ecx
  4064ee:	75 09                	jne    0x4064f9
  4064f0:	8b 44 24 04          	mov    0x4(%esp),%eax
  4064f4:	f7 e1                	mul    %ecx
  4064f6:	c2 10 00             	ret    $0x10
  4064f9:	53                   	push   %ebx
  4064fa:	f7 e1                	mul    %ecx
  4064fc:	8b d8                	mov    %eax,%ebx
  4064fe:	8b 44 24 08          	mov    0x8(%esp),%eax
  406502:	f7 64 24 14          	mull   0x14(%esp)
  406506:	03 d8                	add    %eax,%ebx
  406508:	8b 44 24 08          	mov    0x8(%esp),%eax
  40650c:	f7 e1                	mul    %ecx
  40650e:	03 d3                	add    %ebx,%edx
  406510:	5b                   	pop    %ebx
  406511:	c2 10 00             	ret    $0x10
  406514:	cc                   	int3   
  406515:	cc                   	int3   
  406516:	cc                   	int3   
  406517:	cc                   	int3   
  406518:	cc                   	int3   
  406519:	cc                   	int3   
  40651a:	cc                   	int3   
  40651b:	cc                   	int3   
  40651c:	cc                   	int3   
  40651d:	cc                   	int3   
  40651e:	cc                   	int3   
  40651f:	cc                   	int3   
  406520:	8d 42 ff             	lea    -0x1(%edx),%eax
  406523:	5b                   	pop    %ebx
  406524:	c3                   	ret    
  406525:	8d a4 24 00 00 00 00 	lea    0x0(%esp),%esp
  40652c:	8d 64 24 00          	lea    0x0(%esp),%esp
  406530:	33 c0                	xor    %eax,%eax
  406532:	8a 44 24 08          	mov    0x8(%esp),%al
  406536:	53                   	push   %ebx
  406537:	8b d8                	mov    %eax,%ebx
  406539:	c1 e0 08             	shl    $0x8,%eax
  40653c:	8b 54 24 08          	mov    0x8(%esp),%edx
  406540:	f7 c2 03 00 00 00    	test   $0x3,%edx
  406546:	74 13                	je     0x40655b
  406548:	8a 0a                	mov    (%edx),%cl
  40654a:	42                   	inc    %edx
  40654b:	38 d9                	cmp    %bl,%cl
  40654d:	74 d1                	je     0x406520
  40654f:	84 c9                	test   %cl,%cl
  406551:	74 51                	je     0x4065a4
  406553:	f7 c2 03 00 00 00    	test   $0x3,%edx
  406559:	75 ed                	jne    0x406548
  40655b:	0b d8                	or     %eax,%ebx
  40655d:	57                   	push   %edi
  40655e:	8b c3                	mov    %ebx,%eax
  406560:	c1 e3 10             	shl    $0x10,%ebx
  406563:	56                   	push   %esi
  406564:	0b d8                	or     %eax,%ebx
  406566:	8b 0a                	mov    (%edx),%ecx
  406568:	bf ff fe fe 7e       	mov    $0x7efefeff,%edi
  40656d:	8b c1                	mov    %ecx,%eax
  40656f:	8b f7                	mov    %edi,%esi
  406571:	33 cb                	xor    %ebx,%ecx
  406573:	03 f0                	add    %eax,%esi
  406575:	03 f9                	add    %ecx,%edi
  406577:	83 f1 ff             	xor    $0xffffffff,%ecx
  40657a:	83 f0 ff             	xor    $0xffffffff,%eax
  40657d:	33 cf                	xor    %edi,%ecx
  40657f:	33 c6                	xor    %esi,%eax
  406581:	83 c2 04             	add    $0x4,%edx
  406584:	81 e1 00 01 01 81    	and    $0x81010100,%ecx
  40658a:	75 1c                	jne    0x4065a8
  40658c:	25 00 01 01 81       	and    $0x81010100,%eax
  406591:	74 d3                	je     0x406566
  406593:	25 00 01 01 01       	and    $0x1010100,%eax
  406598:	75 08                	jne    0x4065a2
  40659a:	81 e6 00 00 00 80    	and    $0x80000000,%esi
  4065a0:	75 c4                	jne    0x406566
  4065a2:	5e                   	pop    %esi
  4065a3:	5f                   	pop    %edi
  4065a4:	5b                   	pop    %ebx
  4065a5:	33 c0                	xor    %eax,%eax
  4065a7:	c3                   	ret    
  4065a8:	8b 42 fc             	mov    -0x4(%edx),%eax
  4065ab:	38 d8                	cmp    %bl,%al
  4065ad:	74 36                	je     0x4065e5
  4065af:	84 c0                	test   %al,%al
  4065b1:	74 ef                	je     0x4065a2
  4065b3:	38 dc                	cmp    %bl,%ah
  4065b5:	74 27                	je     0x4065de
  4065b7:	84 e4                	test   %ah,%ah
  4065b9:	74 e7                	je     0x4065a2
  4065bb:	c1 e8 10             	shr    $0x10,%eax
  4065be:	38 d8                	cmp    %bl,%al
  4065c0:	74 15                	je     0x4065d7
  4065c2:	84 c0                	test   %al,%al
  4065c4:	74 dc                	je     0x4065a2
  4065c6:	38 dc                	cmp    %bl,%ah
  4065c8:	74 06                	je     0x4065d0
  4065ca:	84 e4                	test   %ah,%ah
  4065cc:	74 d4                	je     0x4065a2
  4065ce:	eb 96                	jmp    0x406566
  4065d0:	5e                   	pop    %esi
  4065d1:	5f                   	pop    %edi
  4065d2:	8d 42 ff             	lea    -0x1(%edx),%eax
  4065d5:	5b                   	pop    %ebx
  4065d6:	c3                   	ret    
  4065d7:	8d 42 fe             	lea    -0x2(%edx),%eax
  4065da:	5e                   	pop    %esi
  4065db:	5f                   	pop    %edi
  4065dc:	5b                   	pop    %ebx
  4065dd:	c3                   	ret    
  4065de:	8d 42 fd             	lea    -0x3(%edx),%eax
  4065e1:	5e                   	pop    %esi
  4065e2:	5f                   	pop    %edi
  4065e3:	5b                   	pop    %ebx
  4065e4:	c3                   	ret    
  4065e5:	8d 42 fc             	lea    -0x4(%edx),%eax
  4065e8:	5e                   	pop    %esi
  4065e9:	5f                   	pop    %edi
  4065ea:	5b                   	pop    %ebx
  4065eb:	c3                   	ret    
  4065ec:	ff 25 80 70 40 00    	jmp    *0x407080

Disassembly of section .rdata:

00407000 <.rdata>:
  407000:	24 77                	and    $0x77,%al
  407002:	00 00                	add    %al,(%eax)
  407004:	36 77 00             	ss ja  0x407007
  407007:	00 44 77 00          	add    %al,0x0(%edi,%esi,2)
  40700b:	00 52 77             	add    %dl,0x77(%edx)
  40700e:	00 00                	add    %al,(%eax)
  407010:	6a 77                	push   $0x77
  407012:	00 00                	add    %al,(%eax)
  407014:	82                   	(bad)  
  407015:	77 00                	ja     0x407017
  407017:	00 8e 77 00 00 9e    	add    %cl,-0x61ffff89(%esi)
  40701d:	77 00                	ja     0x40701f
  40701f:	00 ac 77 00 00 b8 77 	add    %ch,0x77b80000(%edi,%esi,2)
  407026:	00 00                	add    %al,(%eax)
  407028:	d4 77                	aam    $0x77
  40702a:	00 00                	add    %al,(%eax)
  40702c:	e8 77 00 00 fc       	call   0xfc4070a8
  407031:	77 00                	ja     0x407033
  407033:	00 18                	add    %bl,(%eax)
  407035:	78 00                	js     0x407037
  407037:	00 2e                	add    %ch,(%esi)
  407039:	78 00                	js     0x40703b
  40703b:	00 48 78             	add    %cl,0x78(%eax)
  40703e:	00 00                	add    %al,(%eax)
  407040:	62 78 00             	bound  %edi,0x0(%eax)
  407043:	00 78 78             	add    %bh,0x78(%eax)
  407046:	00 00                	add    %al,(%eax)
  407048:	90                   	nop
  407049:	78 00                	js     0x40704b
  40704b:	00 aa 78 00 00 bc    	add    %ch,-0x43ffff88(%edx)
  407051:	78 00                	js     0x407053
  407053:	00 cc                	add    %cl,%ah
  407055:	78 00                	js     0x407057
  407057:	00 da                	add    %bl,%dl
  407059:	78 00                	js     0x40705b
  40705b:	00 ec                	add    %ch,%ah
  40705d:	78 00                	js     0x40705f
  40705f:	00 04 79             	add    %al,(%ecx,%edi,2)
  407062:	00 00                	add    %al,(%eax)
  407064:	1a 79 00             	sbb    0x0(%ecx),%bh
  407067:	00 28                	add    %ch,(%eax)
  407069:	79 00                	jns    0x40706b
  40706b:	00 34 79             	add    %dh,(%ecx,%edi,2)
  40706e:	00 00                	add    %al,(%eax)
  407070:	44                   	inc    %esp
  407071:	79 00                	jns    0x407073
  407073:	00 52 79             	add    %dl,0x79(%edx)
  407076:	00 00                	add    %al,(%eax)
  407078:	60                   	pusha  
  407079:	79 00                	jns    0x40707b
  40707b:	00 6e 79             	add    %ch,0x79(%esi)
  40707e:	00 00                	add    %al,(%eax)
  407080:	7c 79                	jl     0x4070fb
  407082:	00 00                	add    %al,(%eax)
  407084:	88 79 00             	mov    %bh,0x0(%ecx)
  407087:	00 94 79 00 00 a0 79 	add    %dl,0x79a00000(%ecx,%edi,2)
  40708e:	00 00                	add    %al,(%eax)
  407090:	b8 79 00 00 d0       	mov    $0xd0000079,%eax
  407095:	79 00                	jns    0x407097
  407097:	00 e0                	add    %ah,%al
  407099:	79 00                	jns    0x40709b
  40709b:	00 ee                	add    %ch,%dh
  40709d:	79 00                	jns    0x40709f
  40709f:	00 fe                	add    %bh,%dh
  4070a1:	79 00                	jns    0x4070a3
  4070a3:	00 12                	add    %dl,(%edx)
  4070a5:	7a 00                	jp     0x4070a7
  4070a7:	00 24 7a             	add    %ah,(%edx,%edi,2)
  4070aa:	00 00                	add    %al,(%eax)
  4070ac:	32 7a 00             	xor    0x0(%edx),%bh
  4070af:	00 3e                	add    %bh,(%esi)
  4070b1:	7a 00                	jp     0x4070b3
  4070b3:	00 48 7a             	add    %cl,0x7a(%eax)
  4070b6:	00 00                	add    %al,(%eax)
  4070b8:	54                   	push   %esp
  4070b9:	7a 00                	jp     0x4070bb
  4070bb:	00 66 7a             	add    %ah,0x7a(%esi)
  4070be:	00 00                	add    %al,(%eax)
  4070c0:	76 7a                	jbe    0x40713c
  4070c2:	00 00                	add    %al,(%eax)
  4070c4:	86 7a 00             	xchg   %bh,0x0(%edx)
  4070c7:	00 9c 7a 00 00 ac 7a 	add    %bl,0x7aac0000(%edx,%edi,2)
  4070ce:	00 00                	add    %al,(%eax)
  4070d0:	bc 7a 00 00 ce       	mov    $0xce00007a,%esp
  4070d5:	7a 00                	jp     0x4070d7
	...
  4070df:	00 ff                	add    %bh,%bh
  4070e1:	ff                   	(bad)  
  4070e2:	ff                   	(bad)  
  4070e3:	ff 91 15 40 00 a5    	call   *-0x5affbfeb(%ecx)
  4070e9:	15 40 00 06 00       	adc    $0x60040,%eax
  4070ee:	00 06                	add    %al,(%esi)
  4070f0:	00 01                	add    %al,(%ecx)
  4070f2:	00 00                	add    %al,(%eax)
  4070f4:	10 00                	adc    %al,(%eax)
  4070f6:	03 06                	add    (%esi),%eax
  4070f8:	00 06                	add    %al,(%esi)
  4070fa:	02 10                	add    (%eax),%dl
  4070fc:	04 45                	add    $0x45,%al
  4070fe:	45                   	inc    %ebp
  4070ff:	45                   	inc    %ebp
  407100:	05 05 05 05 05       	add    $0x5050505,%eax
  407105:	35 30 00 50 00       	xor    $0x500030,%eax
  40710a:	00 00                	add    %al,(%eax)
  40710c:	00 20                	add    %ah,(%eax)
  40710e:	28 38                	sub    %bh,(%eax)
  407110:	50                   	push   %eax
  407111:	58                   	pop    %eax
  407112:	07                   	pop    %es
  407113:	08 00                	or     %al,(%eax)
  407115:	37                   	aaa    
  407116:	30 30                	xor    %dh,(%eax)
  407118:	57                   	push   %edi
  407119:	50                   	push   %eax
  40711a:	07                   	pop    %es
  40711b:	00 00                	add    %al,(%eax)
  40711d:	20 20                	and    %ah,(%eax)
  40711f:	08 00                	or     %al,(%eax)
  407121:	00 00                	add    %al,(%eax)
  407123:	00 08                	add    %cl,(%eax)
  407125:	60                   	pusha  
  407126:	68 60 60 60 60       	push   $0x60606060
  40712b:	00 00                	add    %al,(%eax)
  40712d:	70 70                	jo     0x40719f
  40712f:	78 78                	js     0x4071a9
  407131:	78 78                	js     0x4071ab
  407133:	08 07                	or     %al,(%edi)
  407135:	08 00                	or     %al,(%eax)
  407137:	00 07                	add    %al,(%edi)
  407139:	00 08                	add    %cl,(%eax)
  40713b:	08 08                	or     %cl,(%eax)
  40713d:	00 00                	add    %al,(%eax)
  40713f:	08 00                	or     %al,(%eax)
  407141:	08 00                	or     %al,(%eax)
  407143:	07                   	pop    %es
  407144:	08 00                	or     %al,(%eax)
  407146:	00 00                	add    %al,(%eax)
  407148:	28 00                	sub    %al,(%eax)
  40714a:	6e                   	outsb  %ds:(%esi),(%dx)
  40714b:	00 75 00             	add    %dh,0x0(%ebp)
  40714e:	6c                   	insb   (%dx),%es:(%edi)
  40714f:	00 6c 00 29          	add    %ch,0x29(%eax,%eax,1)
  407153:	00 00                	add    %al,(%eax)
  407155:	00 00                	add    %al,(%eax)
  407157:	00 28                	add    %ch,(%eax)
  407159:	6e                   	outsb  %ds:(%esi),(%dx)
  40715a:	75 6c                	jne    0x4071c8
  40715c:	6c                   	insb   (%dx),%es:(%edi)
  40715d:	29 00                	sub    %eax,(%eax)
  40715f:	00 72 75             	add    %dh,0x75(%edx)
  407162:	6e                   	outsb  %ds:(%esi),(%dx)
  407163:	74 69                	je     0x4071ce
  407165:	6d                   	insl   (%dx),%es:(%edi)
  407166:	65 20 65 72          	and    %ah,%gs:0x72(%ebp)
  40716a:	72 6f                	jb     0x4071db
  40716c:	72 20                	jb     0x40718e
  40716e:	00 00                	add    %al,(%eax)
  407170:	0d 0a 00 00 54       	or     $0x5400000a,%eax
  407175:	4c                   	dec    %esp
  407176:	4f                   	dec    %edi
  407177:	53                   	push   %ebx
  407178:	53                   	push   %ebx
  407179:	20 65 72             	and    %ah,0x72(%ebp)
  40717c:	72 6f                	jb     0x4071ed
  40717e:	72 0d                	jb     0x40718d
  407180:	0a 00                	or     (%eax),%al
  407182:	00 00                	add    %al,(%eax)
  407184:	53                   	push   %ebx
  407185:	49                   	dec    %ecx
  407186:	4e                   	dec    %esi
  407187:	47                   	inc    %edi
  407188:	20 65 72             	and    %ah,0x72(%ebp)
  40718b:	72 6f                	jb     0x4071fc
  40718d:	72 0d                	jb     0x40719c
  40718f:	0a 00                	or     (%eax),%al
  407191:	00 00                	add    %al,(%eax)
  407193:	00 44 4f 4d          	add    %al,0x4d(%edi,%ecx,2)
  407197:	41                   	inc    %ecx
  407198:	49                   	dec    %ecx
  407199:	4e                   	dec    %esi
  40719a:	20 65 72             	and    %ah,0x72(%ebp)
  40719d:	72 6f                	jb     0x40720e
  40719f:	72 0d                	jb     0x4071ae
  4071a1:	0a 00                	or     (%eax),%al
  4071a3:	00 52 36             	add    %dl,0x36(%edx)
  4071a6:	30 32                	xor    %dh,(%edx)
  4071a8:	38 0d 0a 2d 20 75    	cmp    %cl,0x75202d0a
  4071ae:	6e                   	outsb  %ds:(%esi),(%dx)
  4071af:	61                   	popa   
  4071b0:	62 6c 65 20          	bound  %ebp,0x20(%ebp,%eiz,2)
  4071b4:	74 6f                	je     0x407225
  4071b6:	20 69 6e             	and    %ch,0x6e(%ecx)
  4071b9:	69 74 69 61 6c 69 7a 	imul   $0x657a696c,0x61(%ecx,%ebp,2),%esi
  4071c0:	65 
  4071c1:	20 68 65             	and    %ch,0x65(%eax)
  4071c4:	61                   	popa   
  4071c5:	70 0d                	jo     0x4071d4
  4071c7:	0a 00                	or     (%eax),%al
  4071c9:	00 00                	add    %al,(%eax)
  4071cb:	00 52 36             	add    %dl,0x36(%edx)
  4071ce:	30 32                	xor    %dh,(%edx)
  4071d0:	37                   	aaa    
  4071d1:	0d 0a 2d 20 6e       	or     $0x6e202d0a,%eax
  4071d6:	6f                   	outsl  %ds:(%esi),(%dx)
  4071d7:	74 20                	je     0x4071f9
  4071d9:	65 6e                	outsb  %gs:(%esi),(%dx)
  4071db:	6f                   	outsl  %ds:(%esi),(%dx)
  4071dc:	75 67                	jne    0x407245
  4071de:	68 20 73 70 61       	push   $0x61707320
  4071e3:	63 65 20             	arpl   %sp,0x20(%ebp)
  4071e6:	66 6f                	outsw  %ds:(%esi),(%dx)
  4071e8:	72 20                	jb     0x40720a
  4071ea:	6c                   	insb   (%dx),%es:(%edi)
  4071eb:	6f                   	outsl  %ds:(%esi),(%dx)
  4071ec:	77 69                	ja     0x407257
  4071ee:	6f                   	outsl  %ds:(%esi),(%dx)
  4071ef:	20 69 6e             	and    %ch,0x6e(%ecx)
  4071f2:	69 74 69 61 6c 69 7a 	imul   $0x617a696c,0x61(%ecx,%ebp,2),%esi
  4071f9:	61 
  4071fa:	74 69                	je     0x407265
  4071fc:	6f                   	outsl  %ds:(%esi),(%dx)
  4071fd:	6e                   	outsb  %ds:(%esi),(%dx)
  4071fe:	0d 0a 00 00 00       	or     $0xa,%eax
  407203:	00 52 36             	add    %dl,0x36(%edx)
  407206:	30 32                	xor    %dh,(%edx)
  407208:	36 0d 0a 2d 20 6e    	ss or  $0x6e202d0a,%eax
  40720e:	6f                   	outsl  %ds:(%esi),(%dx)
  40720f:	74 20                	je     0x407231
  407211:	65 6e                	outsb  %gs:(%esi),(%dx)
  407213:	6f                   	outsl  %ds:(%esi),(%dx)
  407214:	75 67                	jne    0x40727d
  407216:	68 20 73 70 61       	push   $0x61707320
  40721b:	63 65 20             	arpl   %sp,0x20(%ebp)
  40721e:	66 6f                	outsw  %ds:(%esi),(%dx)
  407220:	72 20                	jb     0x407242
  407222:	73 74                	jae    0x407298
  407224:	64 69 6f 20 69 6e 69 	imul   $0x74696e69,%fs:0x20(%edi),%ebp
  40722b:	74 
  40722c:	69 61 6c 69 7a 61 74 	imul   $0x74617a69,0x6c(%ecx),%esp
  407233:	69 6f 6e 0d 0a 00 00 	imul   $0xa0d,0x6e(%edi),%ebp
  40723a:	00 00                	add    %al,(%eax)
  40723c:	52                   	push   %edx
  40723d:	36 30 32             	xor    %dh,%ss:(%edx)
  407240:	35 0d 0a 2d 20       	xor    $0x202d0a0d,%eax
  407245:	70 75                	jo     0x4072bc
  407247:	72 65                	jb     0x4072ae
  407249:	20 76 69             	and    %dh,0x69(%esi)
  40724c:	72 74                	jb     0x4072c2
  40724e:	75 61                	jne    0x4072b1
  407250:	6c                   	insb   (%dx),%es:(%edi)
  407251:	20 66 75             	and    %ah,0x75(%esi)
  407254:	6e                   	outsb  %ds:(%esi),(%dx)
  407255:	63 74 69 6f          	arpl   %si,0x6f(%ecx,%ebp,2)
  407259:	6e                   	outsb  %ds:(%esi),(%dx)
  40725a:	20 63 61             	and    %ah,0x61(%ebx)
  40725d:	6c                   	insb   (%dx),%es:(%edi)
  40725e:	6c                   	insb   (%dx),%es:(%edi)
  40725f:	0d 0a 00 00 00       	or     $0xa,%eax
  407264:	52                   	push   %edx
  407265:	36 30 32             	xor    %dh,%ss:(%edx)
  407268:	34 0d                	xor    $0xd,%al
  40726a:	0a 2d 20 6e 6f 74    	or     0x746f6e20,%ch
  407270:	20 65 6e             	and    %ah,0x6e(%ebp)
  407273:	6f                   	outsl  %ds:(%esi),(%dx)
  407274:	75 67                	jne    0x4072dd
  407276:	68 20 73 70 61       	push   $0x61707320
  40727b:	63 65 20             	arpl   %sp,0x20(%ebp)
  40727e:	66 6f                	outsw  %ds:(%esi),(%dx)
  407280:	72 20                	jb     0x4072a2
  407282:	5f                   	pop    %edi
  407283:	6f                   	outsl  %ds:(%esi),(%dx)
  407284:	6e                   	outsb  %ds:(%esi),(%dx)
  407285:	65 78 69             	gs js  0x4072f1
  407288:	74 2f                	je     0x4072b9
  40728a:	61                   	popa   
  40728b:	74 65                	je     0x4072f2
  40728d:	78 69                	js     0x4072f8
  40728f:	74 20                	je     0x4072b1
  407291:	74 61                	je     0x4072f4
  407293:	62 6c 65 0d          	bound  %ebp,0xd(%ebp,%eiz,2)
  407297:	0a 00                	or     (%eax),%al
  407299:	00 00                	add    %al,(%eax)
  40729b:	00 52 36             	add    %dl,0x36(%edx)
  40729e:	30 31                	xor    %dh,(%ecx)
  4072a0:	39 0d 0a 2d 20 75    	cmp    %ecx,0x75202d0a
  4072a6:	6e                   	outsb  %ds:(%esi),(%dx)
  4072a7:	61                   	popa   
  4072a8:	62 6c 65 20          	bound  %ebp,0x20(%ebp,%eiz,2)
  4072ac:	74 6f                	je     0x40731d
  4072ae:	20 6f 70             	and    %ch,0x70(%edi)
  4072b1:	65 6e                	outsb  %gs:(%esi),(%dx)
  4072b3:	20 63 6f             	and    %ah,0x6f(%ebx)
  4072b6:	6e                   	outsb  %ds:(%esi),(%dx)
  4072b7:	73 6f                	jae    0x407328
  4072b9:	6c                   	insb   (%dx),%es:(%edi)
  4072ba:	65 20 64 65 76       	and    %ah,%gs:0x76(%ebp,%eiz,2)
  4072bf:	69 63 65 0d 0a 00 00 	imul   $0xa0d,0x65(%ebx),%esp
  4072c6:	00 00                	add    %al,(%eax)
  4072c8:	52                   	push   %edx
  4072c9:	36 30 31             	xor    %dh,%ss:(%ecx)
  4072cc:	38 0d 0a 2d 20 75    	cmp    %cl,0x75202d0a
  4072d2:	6e                   	outsb  %ds:(%esi),(%dx)
  4072d3:	65 78 70             	gs js  0x407346
  4072d6:	65 63 74 65 64       	arpl   %si,%gs:0x64(%ebp,%eiz,2)
  4072db:	20 68 65             	and    %ch,0x65(%eax)
  4072de:	61                   	popa   
  4072df:	70 20                	jo     0x407301
  4072e1:	65 72 72             	gs jb  0x407356
  4072e4:	6f                   	outsl  %ds:(%esi),(%dx)
  4072e5:	72 0d                	jb     0x4072f4
  4072e7:	0a 00                	or     (%eax),%al
  4072e9:	00 00                	add    %al,(%eax)
  4072eb:	00 52 36             	add    %dl,0x36(%edx)
  4072ee:	30 31                	xor    %dh,(%ecx)
  4072f0:	37                   	aaa    
  4072f1:	0d 0a 2d 20 75       	or     $0x75202d0a,%eax
  4072f6:	6e                   	outsb  %ds:(%esi),(%dx)
  4072f7:	65 78 70             	gs js  0x40736a
  4072fa:	65 63 74 65 64       	arpl   %si,%gs:0x64(%ebp,%eiz,2)
  4072ff:	20 6d 75             	and    %ch,0x75(%ebp)
  407302:	6c                   	insb   (%dx),%es:(%edi)
  407303:	74 69                	je     0x40736e
  407305:	74 68                	je     0x40736f
  407307:	72 65                	jb     0x40736e
  407309:	61                   	popa   
  40730a:	64 20 6c 6f 63       	and    %ch,%fs:0x63(%edi,%ebp,2)
  40730f:	6b 20 65             	imul   $0x65,(%eax),%esp
  407312:	72 72                	jb     0x407386
  407314:	6f                   	outsl  %ds:(%esi),(%dx)
  407315:	72 0d                	jb     0x407324
  407317:	0a 00                	or     (%eax),%al
  407319:	00 00                	add    %al,(%eax)
  40731b:	00 52 36             	add    %dl,0x36(%edx)
  40731e:	30 31                	xor    %dh,(%ecx)
  407320:	36 0d 0a 2d 20 6e    	ss or  $0x6e202d0a,%eax
  407326:	6f                   	outsl  %ds:(%esi),(%dx)
  407327:	74 20                	je     0x407349
  407329:	65 6e                	outsb  %gs:(%esi),(%dx)
  40732b:	6f                   	outsl  %ds:(%esi),(%dx)
  40732c:	75 67                	jne    0x407395
  40732e:	68 20 73 70 61       	push   $0x61707320
  407333:	63 65 20             	arpl   %sp,0x20(%ebp)
  407336:	66 6f                	outsw  %ds:(%esi),(%dx)
  407338:	72 20                	jb     0x40735a
  40733a:	74 68                	je     0x4073a4
  40733c:	72 65                	jb     0x4073a3
  40733e:	61                   	popa   
  40733f:	64 20 64 61 74       	and    %ah,%fs:0x74(%ecx,%eiz,2)
  407344:	61                   	popa   
  407345:	0d 0a 00 0d 0a       	or     $0xa0d000a,%eax
  40734a:	61                   	popa   
  40734b:	62 6e 6f             	bound  %ebp,0x6f(%esi)
  40734e:	72 6d                	jb     0x4073bd
  407350:	61                   	popa   
  407351:	6c                   	insb   (%dx),%es:(%edi)
  407352:	20 70 72             	and    %dh,0x72(%eax)
  407355:	6f                   	outsl  %ds:(%esi),(%dx)
  407356:	67 72 61             	addr16 jb 0x4073ba
  407359:	6d                   	insl   (%dx),%es:(%edi)
  40735a:	20 74 65 72          	and    %dh,0x72(%ebp,%eiz,2)
  40735e:	6d                   	insl   (%dx),%es:(%edi)
  40735f:	69 6e 61 74 69 6f 6e 	imul   $0x6e6f6974,0x61(%esi),%ebp
  407366:	0d 0a 00 00 00       	or     $0xa,%eax
  40736b:	00 52 36             	add    %dl,0x36(%edx)
  40736e:	30 30                	xor    %dh,(%eax)
  407370:	39 0d 0a 2d 20 6e    	cmp    %ecx,0x6e202d0a
  407376:	6f                   	outsl  %ds:(%esi),(%dx)
  407377:	74 20                	je     0x407399
  407379:	65 6e                	outsb  %gs:(%esi),(%dx)
  40737b:	6f                   	outsl  %ds:(%esi),(%dx)
  40737c:	75 67                	jne    0x4073e5
  40737e:	68 20 73 70 61       	push   $0x61707320
  407383:	63 65 20             	arpl   %sp,0x20(%ebp)
  407386:	66 6f                	outsw  %ds:(%esi),(%dx)
  407388:	72 20                	jb     0x4073aa
  40738a:	65 6e                	outsb  %gs:(%esi),(%dx)
  40738c:	76 69                	jbe    0x4073f7
  40738e:	72 6f                	jb     0x4073ff
  407390:	6e                   	outsb  %ds:(%esi),(%dx)
  407391:	6d                   	insl   (%dx),%es:(%edi)
  407392:	65 6e                	outsb  %gs:(%esi),(%dx)
  407394:	74 0d                	je     0x4073a3
  407396:	0a 00                	or     (%eax),%al
  407398:	52                   	push   %edx
  407399:	36 30 30             	xor    %dh,%ss:(%eax)
  40739c:	38 0d 0a 2d 20 6e    	cmp    %cl,0x6e202d0a
  4073a2:	6f                   	outsl  %ds:(%esi),(%dx)
  4073a3:	74 20                	je     0x4073c5
  4073a5:	65 6e                	outsb  %gs:(%esi),(%dx)
  4073a7:	6f                   	outsl  %ds:(%esi),(%dx)
  4073a8:	75 67                	jne    0x407411
  4073aa:	68 20 73 70 61       	push   $0x61707320
  4073af:	63 65 20             	arpl   %sp,0x20(%ebp)
  4073b2:	66 6f                	outsw  %ds:(%esi),(%dx)
  4073b4:	72 20                	jb     0x4073d6
  4073b6:	61                   	popa   
  4073b7:	72 67                	jb     0x407420
  4073b9:	75 6d                	jne    0x407428
  4073bb:	65 6e                	outsb  %gs:(%esi),(%dx)
  4073bd:	74 73                	je     0x407432
  4073bf:	0d 0a 00 00 00       	or     $0xa,%eax
  4073c4:	52                   	push   %edx
  4073c5:	36 30 30             	xor    %dh,%ss:(%eax)
  4073c8:	32 0d 0a 2d 20 66    	xor    0x66202d0a,%cl
  4073ce:	6c                   	insb   (%dx),%es:(%edi)
  4073cf:	6f                   	outsl  %ds:(%esi),(%dx)
  4073d0:	61                   	popa   
  4073d1:	74 69                	je     0x40743c
  4073d3:	6e                   	outsb  %ds:(%esi),(%dx)
  4073d4:	67 20 70 6f          	and    %dh,0x6f(%bx,%si)
  4073d8:	69 6e 74 20 6e 6f 74 	imul   $0x746f6e20,0x74(%esi),%ebp
  4073df:	20 6c 6f 61          	and    %ch,0x61(%edi,%ebp,2)
  4073e3:	64 65 64 0d 0a 00 00 	fs gs fs or $0xa,%eax
  4073ea:	00 
  4073eb:	00 4d 69             	add    %cl,0x69(%ebp)
  4073ee:	63 72 6f             	arpl   %si,0x6f(%edx)
  4073f1:	73 6f                	jae    0x407462
  4073f3:	66 74 20             	data16 je 0x407416
  4073f6:	56                   	push   %esi
  4073f7:	69 73 75 61 6c 20 43 	imul   $0x43206c61,0x75(%ebx),%esi
  4073fe:	2b 2b                	sub    (%ebx),%ebp
  407400:	20 52 75             	and    %dl,0x75(%edx)
  407403:	6e                   	outsb  %ds:(%esi),(%dx)
  407404:	74 69                	je     0x40746f
  407406:	6d                   	insl   (%dx),%es:(%edi)
  407407:	65 20 4c 69 62       	and    %cl,%gs:0x62(%ecx,%ebp,2)
  40740c:	72 61                	jb     0x40746f
  40740e:	72 79                	jb     0x407489
  407410:	00 00                	add    %al,(%eax)
  407412:	00 00                	add    %al,(%eax)
  407414:	0a 0a                	or     (%edx),%cl
  407416:	00 00                	add    %al,(%eax)
  407418:	52                   	push   %edx
  407419:	75 6e                	jne    0x407489
  40741b:	74 69                	je     0x407486
  40741d:	6d                   	insl   (%dx),%es:(%edi)
  40741e:	65 20 45 72          	and    %al,%gs:0x72(%ebp)
  407422:	72 6f                	jb     0x407493
  407424:	72 21                	jb     0x407447
  407426:	0a 0a                	or     (%edx),%cl
  407428:	50                   	push   %eax
  407429:	72 6f                	jb     0x40749a
  40742b:	67 72 61             	addr16 jb 0x40748f
  40742e:	6d                   	insl   (%dx),%es:(%edi)
  40742f:	3a 20                	cmp    (%eax),%ah
  407431:	00 00                	add    %al,(%eax)
  407433:	00 2e                	add    %ch,(%esi)
  407435:	2e 2e 00 3c 70       	cs add %bh,%cs:(%eax,%esi,2)
  40743a:	72 6f                	jb     0x4074ab
  40743c:	67 72 61             	addr16 jb 0x4074a0
  40743f:	6d                   	insl   (%dx),%es:(%edi)
  407440:	20 6e 61             	and    %ch,0x61(%esi)
  407443:	6d                   	insl   (%dx),%es:(%edi)
  407444:	65 20 75 6e          	and    %dh,%gs:0x6e(%ebp)
  407448:	6b 6e 6f 77          	imul   $0x77,0x6f(%esi),%ebp
  40744c:	6e                   	outsb  %ds:(%esi),(%dx)
  40744d:	3e 00 00             	add    %al,%ds:(%eax)
  407450:	47                   	inc    %edi
  407451:	65 74 4c             	gs je  0x4074a0
  407454:	61                   	popa   
  407455:	73 74                	jae    0x4074cb
  407457:	41                   	inc    %ecx
  407458:	63 74 69 76          	arpl   %si,0x76(%ecx,%ebp,2)
  40745c:	65 50                	gs push %eax
  40745e:	6f                   	outsl  %ds:(%esi),(%dx)
  40745f:	70 75                	jo     0x4074d6
  407461:	70 00                	jo     0x407463
  407463:	00 47 65             	add    %al,0x65(%edi)
  407466:	74 41                	je     0x4074a9
  407468:	63 74 69 76          	arpl   %si,0x76(%ecx,%ebp,2)
  40746c:	65 57                	gs push %edi
  40746e:	69 6e 64 6f 77 00 4d 	imul   $0x4d00776f,0x64(%esi),%ebp
  407475:	65 73 73             	gs jae 0x4074eb
  407478:	61                   	popa   
  407479:	67 65 42             	addr16 gs inc %edx
  40747c:	6f                   	outsl  %ds:(%esi),(%dx)
  40747d:	78 41                	js     0x4074c0
  40747f:	00 75 73             	add    %dh,0x73(%ebp)
  407482:	65 72 33             	gs jb  0x4074b8
  407485:	32 2e                	xor    (%esi),%ch
  407487:	64 6c                	fs insb (%dx),%es:(%edi)
  407489:	6c                   	insb   (%dx),%es:(%edi)
	...
  407496:	00 00                	add    %al,(%eax)
  407498:	ff                   	(bad)  
  407499:	ff                   	(bad)  
  40749a:	ff                   	(bad)  
  40749b:	ff 4a 5d             	decl   0x5d(%edx)
  40749e:	40                   	inc    %eax
  40749f:	00 4e 5d             	add    %cl,0x5d(%esi)
  4074a2:	40                   	inc    %eax
  4074a3:	00 ff                	add    %bh,%bh
  4074a5:	ff                   	(bad)  
  4074a6:	ff                   	(bad)  
  4074a7:	ff                   	(bad)  
  4074a8:	fe                   	(bad)  
  4074a9:	5d                   	pop    %ebp
  4074aa:	40                   	inc    %eax
  4074ab:	00 02                	add    %al,(%edx)
  4074ad:	5e                   	pop    %esi
  4074ae:	40                   	inc    %eax
  4074af:	00 ff                	add    %bh,%bh
  4074b1:	ff                   	(bad)  
  4074b2:	ff                   	(bad)  
  4074b3:	ff 82 5f 40 00 86    	incl   -0x79ffbfa1(%edx)
  4074b9:	5f                   	pop    %edi
  4074ba:	40                   	inc    %eax
  4074bb:	00 48 3a             	add    %cl,0x3a(%eax)
  4074be:	6d                   	insl   (%dx),%es:(%edi)
  4074bf:	6d                   	insl   (%dx),%es:(%edi)
  4074c0:	3a 73 73             	cmp    0x73(%ebx),%dh
  4074c3:	00 64 64 64          	add    %ah,0x64(%esp,%eiz,2)
  4074c7:	64 2c 20             	fs sub $0x20,%al
  4074ca:	4d                   	dec    %ebp
  4074cb:	4d                   	dec    %ebp
  4074cc:	4d                   	dec    %ebp
  4074cd:	4d                   	dec    %ebp
  4074ce:	20 64 64 2c          	and    %ah,0x2c(%esp,%eiz,2)
  4074d2:	20 79 79             	and    %bh,0x79(%ecx)
  4074d5:	79 79                	jns    0x407550
  4074d7:	00 4d 2f             	add    %cl,0x2f(%ebp)
  4074da:	64 2f                	fs das 
  4074dc:	79 79                	jns    0x407557
  4074de:	00 00                	add    %al,(%eax)
  4074e0:	50                   	push   %eax
  4074e1:	4d                   	dec    %ebp
  4074e2:	00 00                	add    %al,(%eax)
  4074e4:	41                   	inc    %ecx
  4074e5:	4d                   	dec    %ebp
  4074e6:	00 00                	add    %al,(%eax)
  4074e8:	44                   	inc    %esp
  4074e9:	65 63 65 6d          	arpl   %sp,%gs:0x6d(%ebp)
  4074ed:	62 65 72             	bound  %esp,0x72(%ebp)
  4074f0:	00 00                	add    %al,(%eax)
  4074f2:	00 00                	add    %al,(%eax)
  4074f4:	4e                   	dec    %esi
  4074f5:	6f                   	outsl  %ds:(%esi),(%dx)
  4074f6:	76 65                	jbe    0x40755d
  4074f8:	6d                   	insl   (%dx),%es:(%edi)
  4074f9:	62 65 72             	bound  %esp,0x72(%ebp)
  4074fc:	00 00                	add    %al,(%eax)
  4074fe:	00 00                	add    %al,(%eax)
  407500:	4f                   	dec    %edi
  407501:	63 74 6f 62          	arpl   %si,0x62(%edi,%ebp,2)
  407505:	65 72 00             	gs jb  0x407508
  407508:	53                   	push   %ebx
  407509:	65 70 74             	gs jo  0x407580
  40750c:	65 6d                	gs insl (%dx),%es:(%edi)
  40750e:	62 65 72             	bound  %esp,0x72(%ebp)
  407511:	00 00                	add    %al,(%eax)
  407513:	00 41 75             	add    %al,0x75(%ecx)
  407516:	67 75 73             	addr16 jne 0x40758c
  407519:	74 00                	je     0x40751b
  40751b:	00 4a 75             	add    %cl,0x75(%edx)
  40751e:	6c                   	insb   (%dx),%es:(%edi)
  40751f:	79 00                	jns    0x407521
  407521:	00 00                	add    %al,(%eax)
  407523:	00 4a 75             	add    %cl,0x75(%edx)
  407526:	6e                   	outsb  %ds:(%esi),(%dx)
  407527:	65 00 00             	add    %al,%gs:(%eax)
  40752a:	00 00                	add    %al,(%eax)
  40752c:	41                   	inc    %ecx
  40752d:	70 72                	jo     0x4075a1
  40752f:	69 6c 00 00 00 4d 61 	imul   $0x72614d00,0x0(%eax,%eax,1),%ebp
  407536:	72 
  407537:	63 68 00             	arpl   %bp,0x0(%eax)
  40753a:	00 00                	add    %al,(%eax)
  40753c:	46                   	inc    %esi
  40753d:	65 62 72 75          	bound  %esi,%gs:0x75(%edx)
  407541:	61                   	popa   
  407542:	72 79                	jb     0x4075bd
  407544:	00 00                	add    %al,(%eax)
  407546:	00 00                	add    %al,(%eax)
  407548:	4a                   	dec    %edx
  407549:	61                   	popa   
  40754a:	6e                   	outsb  %ds:(%esi),(%dx)
  40754b:	75 61                	jne    0x4075ae
  40754d:	72 79                	jb     0x4075c8
  40754f:	00 44 65 63          	add    %al,0x63(%ebp,%eiz,2)
  407553:	00 4e 6f             	add    %cl,0x6f(%esi)
  407556:	76 00                	jbe    0x407558
  407558:	4f                   	dec    %edi
  407559:	63 74 00 53          	arpl   %si,0x53(%eax,%eax,1)
  40755d:	65 70 00             	gs jo  0x407560
  407560:	41                   	inc    %ecx
  407561:	75 67                	jne    0x4075ca
  407563:	00 4a 75             	add    %cl,0x75(%edx)
  407566:	6c                   	insb   (%dx),%es:(%edi)
  407567:	00 4a 75             	add    %cl,0x75(%edx)
  40756a:	6e                   	outsb  %ds:(%esi),(%dx)
  40756b:	00 4d 61             	add    %cl,0x61(%ebp)
  40756e:	79 00                	jns    0x407570
  407570:	41                   	inc    %ecx
  407571:	70 72                	jo     0x4075e5
  407573:	00 4d 61             	add    %cl,0x61(%ebp)
  407576:	72 00                	jb     0x407578
  407578:	46                   	inc    %esi
  407579:	65 62 00             	bound  %eax,%gs:(%eax)
  40757c:	4a                   	dec    %edx
  40757d:	61                   	popa   
  40757e:	6e                   	outsb  %ds:(%esi),(%dx)
  40757f:	00 53 61             	add    %dl,0x61(%ebx)
  407582:	74 75                	je     0x4075f9
  407584:	72 64                	jb     0x4075ea
  407586:	61                   	popa   
  407587:	79 00                	jns    0x407589
  407589:	00 00                	add    %al,(%eax)
  40758b:	00 46 72             	add    %al,0x72(%esi)
  40758e:	69 64 61 79 00 00 54 	imul   $0x68540000,0x79(%ecx,%eiz,2),%esp
  407595:	68 
  407596:	75 72                	jne    0x40760a
  407598:	73 64                	jae    0x4075fe
  40759a:	61                   	popa   
  40759b:	79 00                	jns    0x40759d
  40759d:	00 00                	add    %al,(%eax)
  40759f:	00 57 65             	add    %dl,0x65(%edi)
  4075a2:	64 6e                	outsb  %fs:(%esi),(%dx)
  4075a4:	65 73 64             	gs jae 0x40760b
  4075a7:	61                   	popa   
  4075a8:	79 00                	jns    0x4075aa
  4075aa:	00 00                	add    %al,(%eax)
  4075ac:	54                   	push   %esp
  4075ad:	75 65                	jne    0x407614
  4075af:	73 64                	jae    0x407615
  4075b1:	61                   	popa   
  4075b2:	79 00                	jns    0x4075b4
  4075b4:	4d                   	dec    %ebp
  4075b5:	6f                   	outsl  %ds:(%esi),(%dx)
  4075b6:	6e                   	outsb  %ds:(%esi),(%dx)
  4075b7:	64 61                	fs popa 
  4075b9:	79 00                	jns    0x4075bb
  4075bb:	00 53 75             	add    %dl,0x75(%ebx)
  4075be:	6e                   	outsb  %ds:(%esi),(%dx)
  4075bf:	64 61                	fs popa 
  4075c1:	79 00                	jns    0x4075c3
  4075c3:	00 53 61             	add    %dl,0x61(%ebx)
  4075c6:	74 00                	je     0x4075c8
  4075c8:	46                   	inc    %esi
  4075c9:	72 69                	jb     0x407634
  4075cb:	00 54 68 75          	add    %dl,0x75(%eax,%ebp,2)
  4075cf:	00 57 65             	add    %dl,0x65(%edi)
  4075d2:	64 00 54 75 65       	add    %dl,%fs:0x65(%ebp,%esi,2)
  4075d7:	00 4d 6f             	add    %cl,0x6f(%ebp)
  4075da:	6e                   	outsb  %ds:(%esi),(%dx)
  4075db:	00 53 75             	add    %dl,0x75(%ebx)
  4075de:	6e                   	outsb  %ds:(%esi),(%dx)
  4075df:	00 53 75             	add    %dl,0x75(%ebx)
  4075e2:	6e                   	outsb  %ds:(%esi),(%dx)
  4075e3:	4d                   	dec    %ebp
  4075e4:	6f                   	outsl  %ds:(%esi),(%dx)
  4075e5:	6e                   	outsb  %ds:(%esi),(%dx)
  4075e6:	54                   	push   %esp
  4075e7:	75 65                	jne    0x40764e
  4075e9:	57                   	push   %edi
  4075ea:	65 64 54             	gs fs push %esp
  4075ed:	68 75 46 72 69       	push   $0x69724675
  4075f2:	53                   	push   %ebx
  4075f3:	61                   	popa   
  4075f4:	74 00                	je     0x4075f6
  4075f6:	00 00                	add    %al,(%eax)
  4075f8:	4a                   	dec    %edx
  4075f9:	61                   	popa   
  4075fa:	6e                   	outsb  %ds:(%esi),(%dx)
  4075fb:	46                   	inc    %esi
  4075fc:	65 62 4d 61          	bound  %ecx,%gs:0x61(%ebp)
  407600:	72 41                	jb     0x407643
  407602:	70 72                	jo     0x407676
  407604:	4d                   	dec    %ebp
  407605:	61                   	popa   
  407606:	79 4a                	jns    0x407652
  407608:	75 6e                	jne    0x407678
  40760a:	4a                   	dec    %edx
  40760b:	75 6c                	jne    0x407679
  40760d:	41                   	inc    %ecx
  40760e:	75 67                	jne    0x407677
  407610:	53                   	push   %ebx
  407611:	65 70 4f             	gs jo  0x407663
  407614:	63 74 4e 6f          	arpl   %si,0x6f(%esi,%ecx,2)
  407618:	76 44                	jbe    0x40765e
  40761a:	65 63 00             	arpl   %ax,%gs:(%eax)
  40761d:	00 00                	add    %al,(%eax)
  40761f:	00 48 76             	add    %cl,0x76(%eax)
	...
  40762a:	00 00                	add    %al,(%eax)
  40762c:	e0 7a                	loopne 0x4076a8
  40762e:	00 00                	add    %al,(%eax)
  407630:	00 70 00             	add    %dh,0x0(%eax)
	...
  407647:	00 24 77             	add    %ah,(%edi,%esi,2)
  40764a:	00 00                	add    %al,(%eax)
  40764c:	36 77 00             	ss ja  0x40764f
  40764f:	00 44 77 00          	add    %al,0x0(%edi,%esi,2)
  407653:	00 52 77             	add    %dl,0x77(%edx)
  407656:	00 00                	add    %al,(%eax)
  407658:	6a 77                	push   $0x77
  40765a:	00 00                	add    %al,(%eax)
  40765c:	82                   	(bad)  
  40765d:	77 00                	ja     0x40765f
  40765f:	00 8e 77 00 00 9e    	add    %cl,-0x61ffff89(%esi)
  407665:	77 00                	ja     0x407667
  407667:	00 ac 77 00 00 b8 77 	add    %ch,0x77b80000(%edi,%esi,2)
  40766e:	00 00                	add    %al,(%eax)
  407670:	d4 77                	aam    $0x77
  407672:	00 00                	add    %al,(%eax)
  407674:	e8 77 00 00 fc       	call   0xfc4076f0
  407679:	77 00                	ja     0x40767b
  40767b:	00 18                	add    %bl,(%eax)
  40767d:	78 00                	js     0x40767f
  40767f:	00 2e                	add    %ch,(%esi)
  407681:	78 00                	js     0x407683
  407683:	00 48 78             	add    %cl,0x78(%eax)
  407686:	00 00                	add    %al,(%eax)
  407688:	62 78 00             	bound  %edi,0x0(%eax)
  40768b:	00 78 78             	add    %bh,0x78(%eax)
  40768e:	00 00                	add    %al,(%eax)
  407690:	90                   	nop
  407691:	78 00                	js     0x407693
  407693:	00 aa 78 00 00 bc    	add    %ch,-0x43ffff88(%edx)
  407699:	78 00                	js     0x40769b
  40769b:	00 cc                	add    %cl,%ah
  40769d:	78 00                	js     0x40769f
  40769f:	00 da                	add    %bl,%dl
  4076a1:	78 00                	js     0x4076a3
  4076a3:	00 ec                	add    %ch,%ah
  4076a5:	78 00                	js     0x4076a7
  4076a7:	00 04 79             	add    %al,(%ecx,%edi,2)
  4076aa:	00 00                	add    %al,(%eax)
  4076ac:	1a 79 00             	sbb    0x0(%ecx),%bh
  4076af:	00 28                	add    %ch,(%eax)
  4076b1:	79 00                	jns    0x4076b3
  4076b3:	00 34 79             	add    %dh,(%ecx,%edi,2)
  4076b6:	00 00                	add    %al,(%eax)
  4076b8:	44                   	inc    %esp
  4076b9:	79 00                	jns    0x4076bb
  4076bb:	00 52 79             	add    %dl,0x79(%edx)
  4076be:	00 00                	add    %al,(%eax)
  4076c0:	60                   	pusha  
  4076c1:	79 00                	jns    0x4076c3
  4076c3:	00 6e 79             	add    %ch,0x79(%esi)
  4076c6:	00 00                	add    %al,(%eax)
  4076c8:	7c 79                	jl     0x407743
  4076ca:	00 00                	add    %al,(%eax)
  4076cc:	88 79 00             	mov    %bh,0x0(%ecx)
  4076cf:	00 94 79 00 00 a0 79 	add    %dl,0x79a00000(%ecx,%edi,2)
  4076d6:	00 00                	add    %al,(%eax)
  4076d8:	b8 79 00 00 d0       	mov    $0xd0000079,%eax
  4076dd:	79 00                	jns    0x4076df
  4076df:	00 e0                	add    %ah,%al
  4076e1:	79 00                	jns    0x4076e3
  4076e3:	00 ee                	add    %ch,%dh
  4076e5:	79 00                	jns    0x4076e7
  4076e7:	00 fe                	add    %bh,%dh
  4076e9:	79 00                	jns    0x4076eb
  4076eb:	00 12                	add    %dl,(%edx)
  4076ed:	7a 00                	jp     0x4076ef
  4076ef:	00 24 7a             	add    %ah,(%edx,%edi,2)
  4076f2:	00 00                	add    %al,(%eax)
  4076f4:	32 7a 00             	xor    0x0(%edx),%bh
  4076f7:	00 3e                	add    %bh,(%esi)
  4076f9:	7a 00                	jp     0x4076fb
  4076fb:	00 48 7a             	add    %cl,0x7a(%eax)
  4076fe:	00 00                	add    %al,(%eax)
  407700:	54                   	push   %esp
  407701:	7a 00                	jp     0x407703
  407703:	00 66 7a             	add    %ah,0x7a(%esi)
  407706:	00 00                	add    %al,(%eax)
  407708:	76 7a                	jbe    0x407784
  40770a:	00 00                	add    %al,(%eax)
  40770c:	86 7a 00             	xchg   %bh,0x0(%edx)
  40770f:	00 9c 7a 00 00 ac 7a 	add    %bl,0x7aac0000(%edx,%edi,2)
  407716:	00 00                	add    %al,(%eax)
  407718:	bc 7a 00 00 ce       	mov    $0xce00007a,%esp
  40771d:	7a 00                	jp     0x40771f
  40771f:	00 00                	add    %al,(%eax)
  407721:	00 00                	add    %al,(%eax)
  407723:	00 ca                	add    %cl,%dl
  407725:	00 47 65             	add    %al,0x65(%edi)
  407728:	74 43                	je     0x40776d
  40772a:	6f                   	outsl  %ds:(%esi),(%dx)
  40772b:	6d                   	insl   (%dx),%es:(%edi)
  40772c:	6d                   	insl   (%dx),%es:(%edi)
  40772d:	61                   	popa   
  40772e:	6e                   	outsb  %ds:(%esi),(%dx)
  40772f:	64 4c                	fs dec %esp
  407731:	69 6e 65 41 00 74 01 	imul   $0x1740041,0x65(%esi),%ebp
  407738:	47                   	inc    %edi
  407739:	65 74 56             	gs je  0x407792
  40773c:	65 72 73             	gs jb  0x4077b2
  40773f:	69 6f 6e 00 00 7d 00 	imul   $0x7d0000,0x6e(%edi),%ebp
  407746:	45                   	inc    %ebp
  407747:	78 69                	js     0x4077b2
  407749:	74 50                	je     0x40779b
  40774b:	72 6f                	jb     0x4077bc
  40774d:	63 65 73             	arpl   %sp,0x73(%ebp)
  407750:	73 00                	jae    0x407752
  407752:	66 00 45 6e          	data16 add %al,0x6e(%ebp)
  407756:	74 65                	je     0x4077bd
  407758:	72 43                	jb     0x40779d
  40775a:	72 69                	jb     0x4077c5
  40775c:	74 69                	je     0x4077c7
  40775e:	63 61 6c             	arpl   %sp,0x6c(%ecx)
  407761:	53                   	push   %ebx
  407762:	65 63 74 69 6f       	arpl   %si,%gs:0x6f(%ecx,%ebp,2)
  407767:	6e                   	outsb  %ds:(%esi),(%dx)
  407768:	00 00                	add    %al,(%eax)
  40776a:	c1 01 4c             	roll   $0x4c,(%ecx)
  40776d:	65 61                	gs popa 
  40776f:	76 65                	jbe    0x4077d6
  407771:	43                   	inc    %ebx
  407772:	72 69                	jb     0x4077dd
  407774:	74 69                	je     0x4077df
  407776:	63 61 6c             	arpl   %sp,0x6c(%ecx)
  407779:	53                   	push   %ebx
  40777a:	65 63 74 69 6f       	arpl   %si,%gs:0x6f(%ecx,%ebp,2)
  40777f:	6e                   	outsb  %ds:(%esi),(%dx)
  407780:	00 00                	add    %al,(%eax)
  407782:	9f                   	lahf   
  407783:	01 48 65             	add    %ecx,0x65(%eax)
  407786:	61                   	popa   
  407787:	70 46                	jo     0x4077cf
  407789:	72 65                	jb     0x4077f0
  40778b:	65 00 00             	add    %al,%gs:(%eax)
  40778e:	1a 01                	sbb    (%ecx),%al
  407790:	47                   	inc    %edi
  407791:	65 74 4c             	gs je  0x4077e0
  407794:	61                   	popa   
  407795:	73 74                	jae    0x40780b
  407797:	45                   	inc    %ebp
  407798:	72 72                	jb     0x40780c
  40779a:	6f                   	outsl  %ds:(%esi),(%dx)
  40779b:	72 00                	jb     0x40779d
  40779d:	00 1b                	add    %bl,(%ebx)
  40779f:	00 43 6c             	add    %al,0x6c(%ebx)
  4077a2:	6f                   	outsl  %ds:(%esi),(%dx)
  4077a3:	73 65                	jae    0x40780a
  4077a5:	48                   	dec    %eax
  4077a6:	61                   	popa   
  4077a7:	6e                   	outsb  %ds:(%esi),(%dx)
  4077a8:	64 6c                	fs insb (%dx),%es:(%edi)
  4077aa:	65 00 18             	add    %bl,%gs:(%eax)
  4077ad:	02 52 65             	add    0x65(%edx),%dl
  4077b0:	61                   	popa   
  4077b1:	64 46                	fs inc %esi
  4077b3:	69 6c 65 00 00 aa 01 	imul   $0x4901aa00,0x0(%ebp,%eiz,2),%ebp
  4077ba:	49 
  4077bb:	6e                   	outsb  %ds:(%esi),(%dx)
  4077bc:	69 74 69 61 6c 69 7a 	imul   $0x657a696c,0x61(%ecx,%ebp,2),%esi
  4077c3:	65 
  4077c4:	43                   	inc    %ebx
  4077c5:	72 69                	jb     0x407830
  4077c7:	74 69                	je     0x407832
  4077c9:	63 61 6c             	arpl   %sp,0x6c(%ecx)
  4077cc:	53                   	push   %ebx
  4077cd:	65 63 74 69 6f       	arpl   %si,%gs:0x6f(%ecx,%ebp,2)
  4077d2:	6e                   	outsb  %ds:(%esi),(%dx)
  4077d3:	00 9e 02 54 65 72    	add    %bl,0x72655402(%esi)
  4077d9:	6d                   	insl   (%dx),%es:(%edi)
  4077da:	69 6e 61 74 65 50 72 	imul   $0x72506574,0x61(%esi),%ebp
  4077e1:	6f                   	outsl  %ds:(%esi),(%dx)
  4077e2:	63 65 73             	arpl   %sp,0x73(%ebp)
  4077e5:	73 00                	jae    0x4077e7
  4077e7:	00 f7                	add    %dh,%bh
  4077e9:	00 47 65             	add    %al,0x65(%edi)
  4077ec:	74 43                	je     0x407831
  4077ee:	75 72                	jne    0x407862
  4077f0:	72 65                	jb     0x407857
  4077f2:	6e                   	outsb  %ds:(%esi),(%dx)
  4077f3:	74 50                	je     0x407845
  4077f5:	72 6f                	jb     0x407866
  4077f7:	63 65 73             	arpl   %sp,0x73(%ebp)
  4077fa:	73 00                	jae    0x4077fc
  4077fc:	ad                   	lods   %ds:(%esi),%eax
  4077fd:	02 55 6e             	add    0x6e(%ebp),%dl
  407800:	68 61 6e 64 6c       	push   $0x6c646e61
  407805:	65 64 45             	gs fs inc %ebp
  407808:	78 63                	js     0x40786d
  40780a:	65 70 74             	gs jo  0x407881
  40780d:	69 6f 6e 46 69 6c 74 	imul   $0x746c6946,0x6e(%edi),%ebp
  407814:	65 72 00             	gs jb  0x407817
  407817:	00 24 01             	add    %ah,(%ecx,%eax,1)
  40781a:	47                   	inc    %edi
  40781b:	65 74 4d             	gs je  0x40786b
  40781e:	6f                   	outsl  %ds:(%esi),(%dx)
  40781f:	64 75 6c             	fs jne 0x40788e
  407822:	65 46                	gs inc %esi
  407824:	69 6c 65 4e 61 6d 65 	imul   $0x41656d61,0x4e(%ebp,%eiz,2),%ebp
  40782b:	41 
  40782c:	00 00                	add    %al,(%eax)
  40782e:	b2 00                	mov    $0x0,%dl
  407830:	46                   	inc    %esi
  407831:	72 65                	jb     0x407898
  407833:	65 45                	gs inc %ebp
  407835:	6e                   	outsb  %ds:(%esi),(%dx)
  407836:	76 69                	jbe    0x4078a1
  407838:	72 6f                	jb     0x4078a9
  40783a:	6e                   	outsb  %ds:(%esi),(%dx)
  40783b:	6d                   	insl   (%dx),%es:(%edi)
  40783c:	65 6e                	outsb  %gs:(%esi),(%dx)
  40783e:	74 53                	je     0x407893
  407840:	74 72                	je     0x4078b4
  407842:	69 6e 67 73 41 00 b3 	imul   $0xb3004173,0x67(%esi),%ebp
  407849:	00 46 72             	add    %al,0x72(%esi)
  40784c:	65 65 45             	gs gs inc %ebp
  40784f:	6e                   	outsb  %ds:(%esi),(%dx)
  407850:	76 69                	jbe    0x4078bb
  407852:	72 6f                	jb     0x4078c3
  407854:	6e                   	outsb  %ds:(%esi),(%dx)
  407855:	6d                   	insl   (%dx),%es:(%edi)
  407856:	65 6e                	outsb  %gs:(%esi),(%dx)
  407858:	74 53                	je     0x4078ad
  40785a:	74 72                	je     0x4078ce
  40785c:	69 6e 67 73 57 00 d2 	imul   $0xd2005773,0x67(%esi),%ebp
  407863:	02 57 69             	add    0x69(%edi),%dl
  407866:	64 65 43             	fs gs inc %ebx
  407869:	68 61 72 54 6f       	push   $0x6f547261
  40786e:	4d                   	dec    %ebp
  40786f:	75 6c                	jne    0x4078dd
  407871:	74 69                	je     0x4078dc
  407873:	42                   	inc    %edx
  407874:	79 74                	jns    0x4078ea
  407876:	65 00 06             	add    %al,%gs:(%esi)
  407879:	01 47 65             	add    %eax,0x65(%edi)
  40787c:	74 45                	je     0x4078c3
  40787e:	6e                   	outsb  %ds:(%esi),(%dx)
  40787f:	76 69                	jbe    0x4078ea
  407881:	72 6f                	jb     0x4078f2
  407883:	6e                   	outsb  %ds:(%esi),(%dx)
  407884:	6d                   	insl   (%dx),%es:(%edi)
  407885:	65 6e                	outsb  %gs:(%esi),(%dx)
  407887:	74 53                	je     0x4078dc
  407889:	74 72                	je     0x4078fd
  40788b:	69 6e 67 73 00 08 01 	imul   $0x1080073,0x67(%esi),%ebp
  407892:	47                   	inc    %edi
  407893:	65 74 45             	gs je  0x4078db
  407896:	6e                   	outsb  %ds:(%esi),(%dx)
  407897:	76 69                	jbe    0x407902
  407899:	72 6f                	jb     0x40790a
  40789b:	6e                   	outsb  %ds:(%esi),(%dx)
  40789c:	6d                   	insl   (%dx),%es:(%edi)
  40789d:	65 6e                	outsb  %gs:(%esi),(%dx)
  40789f:	74 53                	je     0x4078f4
  4078a1:	74 72                	je     0x407915
  4078a3:	69 6e 67 73 57 00 00 	imul   $0x5773,0x67(%esi),%ebp
  4078aa:	6d                   	insl   (%dx),%es:(%edi)
  4078ab:	02 53 65             	add    0x65(%ebx),%dl
  4078ae:	74 48                	je     0x4078f8
  4078b0:	61                   	popa   
  4078b1:	6e                   	outsb  %ds:(%esi),(%dx)
  4078b2:	64 6c                	fs insb (%dx),%es:(%edi)
  4078b4:	65 43                	gs inc %ebx
  4078b6:	6f                   	outsl  %ds:(%esi),(%dx)
  4078b7:	75 6e                	jne    0x407927
  4078b9:	74 00                	je     0x4078bb
  4078bb:	00 52 01             	add    %dl,0x1(%edx)
  4078be:	47                   	inc    %edi
  4078bf:	65 74 53             	gs je  0x407915
  4078c2:	74 64                	je     0x407928
  4078c4:	48                   	dec    %eax
  4078c5:	61                   	popa   
  4078c6:	6e                   	outsb  %ds:(%esi),(%dx)
  4078c7:	64 6c                	fs insb (%dx),%es:(%edi)
  4078c9:	65 00 00             	add    %al,%gs:(%eax)
  4078cc:	15 01 47 65 74       	adc    $0x74654701,%eax
  4078d1:	46                   	inc    %esi
  4078d2:	69 6c 65 54 79 70 65 	imul   $0x657079,0x54(%ebp,%eiz,2),%ebp
  4078d9:	00 
  4078da:	50                   	push   %eax
  4078db:	01 47 65             	add    %eax,0x65(%edi)
  4078de:	74 53                	je     0x407933
  4078e0:	74 61                	je     0x407943
  4078e2:	72 74                	jb     0x407958
  4078e4:	75 70                	jne    0x407956
  4078e6:	49                   	dec    %ecx
  4078e7:	6e                   	outsb  %ds:(%esi),(%dx)
  4078e8:	66 6f                	outsw  %ds:(%esi),(%dx)
  4078ea:	41                   	inc    %ecx
  4078eb:	00 55 00             	add    %dl,0x0(%ebp)
  4078ee:	44                   	inc    %esp
  4078ef:	65 6c                	gs insb (%dx),%es:(%edi)
  4078f1:	65 74 65             	gs je  0x407959
  4078f4:	43                   	inc    %ebx
  4078f5:	72 69                	jb     0x407960
  4078f7:	74 69                	je     0x407962
  4078f9:	63 61 6c             	arpl   %sp,0x6c(%ecx)
  4078fc:	53                   	push   %ebx
  4078fd:	65 63 74 69 6f       	arpl   %si,%gs:0x6f(%ecx,%ebp,2)
  407902:	6e                   	outsb  %ds:(%esi),(%dx)
  407903:	00 fa                	add    %bh,%dl
  407905:	00 47 65             	add    %al,0x65(%edi)
  407908:	74 43                	je     0x40794d
  40790a:	75 72                	jne    0x40797e
  40790c:	72 65                	jb     0x407973
  40790e:	6e                   	outsb  %ds:(%esi),(%dx)
  40790f:	74 54                	je     0x407965
  407911:	68 72 65 61 64       	push   $0x64616572
  407916:	49                   	dec    %ecx
  407917:	64 00 00             	add    %al,%fs:(%eax)
  40791a:	a5                   	movsl  %ds:(%esi),%es:(%edi)
  40791b:	02 54 6c 73          	add    0x73(%esp,%ebp,2),%dl
  40791f:	53                   	push   %ebx
  407920:	65 74 56             	gs je  0x407979
  407923:	61                   	popa   
  407924:	6c                   	insb   (%dx),%es:(%edi)
  407925:	75 65                	jne    0x40798c
  407927:	00 a2 02 54 6c 73    	add    %ah,0x736c5402(%edx)
  40792d:	41                   	inc    %ecx
  40792e:	6c                   	insb   (%dx),%es:(%edi)
  40792f:	6c                   	insb   (%dx),%es:(%edi)
  407930:	6f                   	outsl  %ds:(%esi),(%dx)
  407931:	63 00                	arpl   %ax,(%eax)
  407933:	00 71 02             	add    %dh,0x2(%ecx)
  407936:	53                   	push   %ebx
  407937:	65 74 4c             	gs je  0x407986
  40793a:	61                   	popa   
  40793b:	73 74                	jae    0x4079b1
  40793d:	45                   	inc    %ebp
  40793e:	72 72                	jb     0x4079b2
  407940:	6f                   	outsl  %ds:(%esi),(%dx)
  407941:	72 00                	jb     0x407943
  407943:	00 a4 02 54 6c 73 47 	add    %ah,0x47736c54(%edx,%eax,1)
  40794a:	65 74 56             	gs je  0x4079a3
  40794d:	61                   	popa   
  40794e:	6c                   	insb   (%dx),%es:(%edi)
  40794f:	75 65                	jne    0x4079b6
  407951:	00 9d 01 48 65 61    	add    %bl,0x61654801(%ebp)
  407957:	70 44                	jo     0x40799d
  407959:	65 73 74             	gs jae 0x4079d0
  40795c:	72 6f                	jb     0x4079cd
  40795e:	79 00                	jns    0x407960
  407960:	9b                   	fwait
  407961:	01 48 65             	add    %ecx,0x65(%eax)
  407964:	61                   	popa   
  407965:	70 43                	jo     0x4079aa
  407967:	72 65                	jb     0x4079ce
  407969:	61                   	popa   
  40796a:	74 65                	je     0x4079d1
  40796c:	00 00                	add    %al,(%eax)
  40796e:	bf 02 56 69 72       	mov    $0x72695602,%edi
  407973:	74 75                	je     0x4079ea
  407975:	61                   	popa   
  407976:	6c                   	insb   (%dx),%es:(%edi)
  407977:	46                   	inc    %esi
  407978:	72 65                	jb     0x4079df
  40797a:	65 00 2f             	add    %ch,%gs:(%edi)
  40797d:	02 52 74             	add    0x74(%edx),%dl
  407980:	6c                   	insb   (%dx),%es:(%edi)
  407981:	55                   	push   %ebp
  407982:	6e                   	outsb  %ds:(%esi),(%dx)
  407983:	77 69                	ja     0x4079ee
  407985:	6e                   	outsb  %ds:(%esi),(%dx)
  407986:	64 00 df             	fs add %bl,%bh
  407989:	02 57 72             	add    0x72(%edi),%dl
  40798c:	69 74 65 46 69 6c 65 	imul   $0x656c69,0x46(%ebp,%eiz,2),%esi
  407993:	00 
  407994:	99                   	cltd   
  407995:	01 48 65             	add    %ecx,0x65(%eax)
  407998:	61                   	popa   
  407999:	70 41                	jo     0x4079dc
  40799b:	6c                   	insb   (%dx),%es:(%edi)
  40799c:	6c                   	insb   (%dx),%es:(%edi)
  40799d:	6f                   	outsl  %ds:(%esi),(%dx)
  40799e:	63 00                	arpl   %ax,(%eax)
  4079a0:	ad                   	lods   %ds:(%esi),%eax
  4079a1:	01 49 6e             	add    %ecx,0x6e(%ecx)
  4079a4:	74 65                	je     0x407a0b
  4079a6:	72 6c                	jb     0x407a14
  4079a8:	6f                   	outsl  %ds:(%esi),(%dx)
  4079a9:	63 6b 65             	arpl   %bp,0x65(%ebx)
  4079ac:	64 44                	fs inc %esp
  4079ae:	65 63 72 65          	arpl   %si,%gs:0x65(%edx)
  4079b2:	6d                   	insl   (%dx),%es:(%edi)
  4079b3:	65 6e                	outsb  %gs:(%esi),(%dx)
  4079b5:	74 00                	je     0x4079b7
  4079b7:	00 b0 01 49 6e 74    	add    %dh,0x746e4901(%eax)
  4079bd:	65 72 6c             	gs jb  0x407a2c
  4079c0:	6f                   	outsl  %ds:(%esi),(%dx)
  4079c1:	63 6b 65             	arpl   %bp,0x65(%ebx)
  4079c4:	64 49                	fs dec %ecx
  4079c6:	6e                   	outsb  %ds:(%esi),(%dx)
  4079c7:	63 72 65             	arpl   %si,0x65(%edx)
  4079ca:	6d                   	insl   (%dx),%es:(%edi)
  4079cb:	65 6e                	outsb  %gs:(%esi),(%dx)
  4079cd:	74 00                	je     0x4079cf
  4079cf:	00 bb 02 56 69 72    	add    %bh,0x72695602(%ebx)
  4079d5:	74 75                	je     0x407a4c
  4079d7:	61                   	popa   
  4079d8:	6c                   	insb   (%dx),%es:(%edi)
  4079d9:	41                   	inc    %ecx
  4079da:	6c                   	insb   (%dx),%es:(%edi)
  4079db:	6c                   	insb   (%dx),%es:(%edi)
  4079dc:	6f                   	outsl  %ds:(%esi),(%dx)
  4079dd:	63 00                	arpl   %ax,(%eax)
  4079df:	00 a2 01 48 65 61    	add    %ah,0x61654801(%edx)
  4079e5:	70 52                	jo     0x407a39
  4079e7:	65 41                	gs inc %ecx
  4079e9:	6c                   	insb   (%dx),%es:(%edi)
  4079ea:	6c                   	insb   (%dx),%es:(%edi)
  4079eb:	6f                   	outsl  %ds:(%esi),(%dx)
  4079ec:	63 00                	arpl   %ax,(%eax)
  4079ee:	7c 02                	jl     0x4079f2
  4079f0:	53                   	push   %ebx
  4079f1:	65 74 53             	gs je  0x407a47
  4079f4:	74 64                	je     0x407a5a
  4079f6:	48                   	dec    %eax
  4079f7:	61                   	popa   
  4079f8:	6e                   	outsb  %ds:(%esi),(%dx)
  4079f9:	64 6c                	fs insb (%dx),%es:(%edi)
  4079fb:	65 00 00             	add    %al,%gs:(%eax)
  4079fe:	aa                   	stos   %al,%es:(%edi)
  4079ff:	00 46 6c             	add    %al,0x6c(%esi)
  407a02:	75 73                	jne    0x407a77
  407a04:	68 46 69 6c 65       	push   $0x656c6946
  407a09:	42                   	inc    %edx
  407a0a:	75 66                	jne    0x407a72
  407a0c:	66 65 72 73          	data16 gs jb 0x407a83
  407a10:	00 00                	add    %al,(%eax)
  407a12:	6a 02                	push   $0x2
  407a14:	53                   	push   %ebx
  407a15:	65 74 46             	gs je  0x407a5e
  407a18:	69 6c 65 50 6f 69 6e 	imul   $0x746e696f,0x50(%ebp,%eiz,2),%ebp
  407a1f:	74 
  407a20:	65 72 00             	gs jb  0x407a23
  407a23:	00 34 00             	add    %dh,(%eax,%eax,1)
  407a26:	43                   	inc    %ebx
  407a27:	72 65                	jb     0x407a8e
  407a29:	61                   	popa   
  407a2a:	74 65                	je     0x407a91
  407a2c:	46                   	inc    %esi
  407a2d:	69 6c 65 41 00 bf 00 	imul   $0x4700bf00,0x41(%ebp,%eiz,2),%ebp
  407a34:	47 
  407a35:	65 74 43             	gs je  0x407a7b
  407a38:	50                   	push   %eax
  407a39:	49                   	dec    %ecx
  407a3a:	6e                   	outsb  %ds:(%esi),(%dx)
  407a3b:	66 6f                	outsw  %ds:(%esi),(%dx)
  407a3d:	00 b9 00 47 65 74    	add    %bh,0x74654700(%ecx)
  407a43:	41                   	inc    %ecx
  407a44:	43                   	inc    %ebx
  407a45:	50                   	push   %eax
  407a46:	00 00                	add    %al,(%eax)
  407a48:	31 01                	xor    %eax,(%ecx)
  407a4a:	47                   	inc    %edi
  407a4b:	65 74 4f             	gs je  0x407a9d
  407a4e:	45                   	inc    %ebp
  407a4f:	4d                   	dec    %ebp
  407a50:	43                   	inc    %ebx
  407a51:	50                   	push   %eax
  407a52:	00 00                	add    %al,(%eax)
  407a54:	3e 01 47 65          	add    %eax,%ds:0x65(%edi)
  407a58:	74 50                	je     0x407aaa
  407a5a:	72 6f                	jb     0x407acb
  407a5c:	63 41 64             	arpl   %ax,0x64(%ecx)
  407a5f:	64 72 65             	fs jb  0x407ac7
  407a62:	73 73                	jae    0x407ad7
  407a64:	00 00                	add    %al,(%eax)
  407a66:	c2 01 4c             	ret    $0x4c01
  407a69:	6f                   	outsl  %ds:(%esi),(%dx)
  407a6a:	61                   	popa   
  407a6b:	64 4c                	fs dec %esp
  407a6d:	69 62 72 61 72 79 41 	imul   $0x41797261,0x72(%edx),%esp
  407a74:	00 00                	add    %al,(%eax)
  407a76:	61                   	popa   
  407a77:	02 53 65             	add    0x65(%ebx),%dl
  407a7a:	74 45                	je     0x407ac1
  407a7c:	6e                   	outsb  %ds:(%esi),(%dx)
  407a7d:	64 4f                	fs dec %edi
  407a7f:	66 46                	inc    %si
  407a81:	69 6c 65 00 00 e4 01 	imul   $0x4d01e400,0x0(%ebp,%eiz,2),%ebp
  407a88:	4d 
  407a89:	75 6c                	jne    0x407af7
  407a8b:	74 69                	je     0x407af6
  407a8d:	42                   	inc    %edx
  407a8e:	79 74                	jns    0x407b04
  407a90:	65 54                	gs push %esp
  407a92:	6f                   	outsl  %ds:(%esi),(%dx)
  407a93:	57                   	push   %edi
  407a94:	69 64 65 43 68 61 72 	imul   $0x726168,0x43(%ebp,%eiz,2),%esp
  407a9b:	00 
  407a9c:	bf 01 4c 43 4d       	mov    $0x4d434c01,%edi
  407aa1:	61                   	popa   
  407aa2:	70 53                	jo     0x407af7
  407aa4:	74 72                	je     0x407b18
  407aa6:	69 6e 67 41 00 00 c0 	imul   $0xc0000041,0x67(%esi),%ebp
  407aad:	01 4c 43 4d          	add    %ecx,0x4d(%ebx,%eax,2)
  407ab1:	61                   	popa   
  407ab2:	70 53                	jo     0x407b07
  407ab4:	74 72                	je     0x407b28
  407ab6:	69 6e 67 57 00 00 53 	imul   $0x53000057,0x67(%esi),%ebp
  407abd:	01 47 65             	add    %eax,0x65(%edi)
  407ac0:	74 53                	je     0x407b15
  407ac2:	74 72                	je     0x407b36
  407ac4:	69 6e 67 54 79 70 65 	imul   $0x65707954,0x67(%esi),%ebp
  407acb:	41                   	inc    %ecx
  407acc:	00 00                	add    %al,(%eax)
  407ace:	56                   	push   %esi
  407acf:	01 47 65             	add    %eax,0x65(%edi)
  407ad2:	74 53                	je     0x407b27
  407ad4:	74 72                	je     0x407b48
  407ad6:	69 6e 67 54 79 70 65 	imul   $0x65707954,0x67(%esi),%ebp
  407add:	57                   	push   %edi
  407ade:	00 00                	add    %al,(%eax)
  407ae0:	4b                   	dec    %ebx
  407ae1:	45                   	inc    %ebp
  407ae2:	52                   	push   %edx
  407ae3:	4e                   	dec    %esi
  407ae4:	45                   	inc    %ebp
  407ae5:	4c                   	dec    %esp
  407ae6:	33 32                	xor    (%edx),%esi
  407ae8:	2e 64 6c             	cs fs insb (%dx),%es:(%edi)
  407aeb:	6c                   	insb   (%dx),%es:(%edi)
	...

Disassembly of section .data:

00408000 <.data>:
	...
  40800c:	f9                   	stc    
  40800d:	15 40 00 08 56       	adc    $0x56080040,%eax
  408012:	40                   	inc    %eax
	...
  40801b:	00 a1 16 40 00 00    	add    %ah,0x4016(%ecx)
	...
  40802d:	00 00                	add    %al,(%eax)
  40802f:	00 50 6c             	add    %dl,0x6c(%eax)
  408032:	65 61                	gs popa 
  408034:	73 65                	jae    0x40809b
  408036:	20 65 6e             	and    %ah,0x6e(%ebp)
  408039:	74 65                	je     0x4080a0
  40803b:	72 20                	jb     0x40805d
  40803d:	74 68                	je     0x4080a7
  40803f:	65 20 70 61          	and    %dh,%gs:0x61(%eax)
  408043:	73 73                	jae    0x4080b8
  408045:	77 6f                	ja     0x4080b6
  408047:	72 64                	jb     0x4080ad
  408049:	3a 00                	cmp    (%eax),%al
  40804b:	00 72 62             	add    %dh,0x62(%edx)
  40804e:	00 00                	add    %al,(%eax)
  408050:	65 6e                	outsb  %gs:(%esi),(%dx)
  408052:	63 72 79             	arpl   %si,0x79(%edx)
  408055:	70 74                	jo     0x4080cb
  408057:	65 64 2e 65 6e       	gs fs cs outsb %gs:(%esi),(%dx)
  40805c:	63 00                	arpl   %ax,(%eax)
  40805e:	00 00                	add    %al,(%eax)
  408060:	46                   	inc    %esi
  408061:	61                   	popa   
  408062:	69 6c 65 64 20 74 6f 	imul   $0x206f7420,0x64(%ebp,%eiz,2),%ebp
  408069:	20 
  40806a:	6f                   	outsl  %ds:(%esi),(%dx)
  40806b:	70 65                	jo     0x4080d2
  40806d:	6e                   	outsb  %ds:(%esi),(%dx)
  40806e:	20 65 6e             	and    %ah,0x6e(%ebp)
  408071:	63 72 79             	arpl   %si,0x79(%edx)
  408074:	70 74                	jo     0x4080ea
  408076:	65 64 2e 65 6e       	gs fs cs outsb %gs:(%esi),(%dx)
  40807b:	63 00                	arpl   %ax,(%eax)
  40807d:	00 00                	add    %al,(%eax)
  40807f:	00 41 6e             	add    %al,0x6e(%ecx)
  408082:	20 65 72             	and    %ah,0x72(%ebp)
  408085:	72 6f                	jb     0x4080f6
  408087:	72 20                	jb     0x4080a9
  408089:	6f                   	outsl  %ds:(%esi),(%dx)
  40808a:	63 63 75             	arpl   %sp,0x75(%ebx)
  40808d:	72 65                	jb     0x4080f4
  40808f:	64 00 00             	add    %al,%fs:(%eax)
  408092:	00 00                	add    %al,(%eax)
  408094:	43                   	inc    %ebx
  408095:	6f                   	outsl  %ds:(%esi),(%dx)
  408096:	6e                   	outsb  %ds:(%esi),(%dx)
  408097:	67 72 61             	addr16 jb 0x4080fb
  40809a:	74 75                	je     0x408111
  40809c:	6c                   	insb   (%dx),%es:(%edi)
  40809d:	61                   	popa   
  40809e:	74 69                	je     0x408109
  4080a0:	6f                   	outsl  %ds:(%esi),(%dx)
  4080a1:	6e                   	outsb  %ds:(%esi),(%dx)
  4080a2:	73 2c                	jae    0x4080d0
  4080a4:	20 54 68 65          	and    %dl,0x65(%eax,%ebp,2)
  4080a8:	20 70 61             	and    %dh,0x61(%eax)
  4080ab:	73 73                	jae    0x408120
  4080ad:	77 6f                	ja     0x40811e
  4080af:	72 64                	jb     0x408115
  4080b1:	20 69 73             	and    %ch,0x73(%ecx)
  4080b4:	20 27                	and    %ah,(%edi)
  4080b6:	25 73 27 00 00       	and    $0x2773,%eax
  4080bb:	00 49 6e             	add    %cl,0x6e(%ecx)
  4080be:	76 61                	jbe    0x408121
  4080c0:	6c                   	insb   (%dx),%es:(%edi)
  4080c1:	69 64 20 50 61 73 73 	imul   $0x77737361,0x50(%eax,%eiz,1),%esp
  4080c8:	77 
  4080c9:	6f                   	outsl  %ds:(%esi),(%dx)
  4080ca:	72 64                	jb     0x408130
  4080cc:	00 00                	add    %al,(%eax)
  4080ce:	00 00                	add    %al,(%eax)
  4080d0:	49                   	dec    %ecx
  4080d1:	2e 40                	cs inc %eax
  4080d3:	00 01                	add    %al,(%ecx)
  4080d5:	00 00                	add    %al,(%eax)
  4080d7:	00 40 94             	add    %al,-0x6c(%eax)
  4080da:	40                   	inc    %eax
  4080db:	00 00                	add    %al,(%eax)
  4080dd:	00 00                	add    %al,(%eax)
  4080df:	00 40 94             	add    %al,-0x6c(%eax)
  4080e2:	40                   	inc    %eax
  4080e3:	00 01                	add    %al,(%ecx)
  4080e5:	01 00                	add    %eax,(%eax)
	...
  4080ef:	00 00                	add    %al,(%eax)
  4080f1:	10 00                	adc    %al,(%eax)
	...
  408103:	00 02                	add    %al,(%edx)
  408105:	00 00                	add    %al,(%eax)
  408107:	00 01                	add    %al,(%ecx)
	...
  408121:	00 00                	add    %al,(%eax)
  408123:	00 02                	add    %al,(%edx)
  408125:	00 00                	add    %al,(%eax)
  408127:	00 02                	add    %al,(%edx)
	...
  408355:	00 00                	add    %al,(%eax)
  408357:	00 58 71             	add    %bl,0x71(%eax)
  40835a:	40                   	inc    %eax
  40835b:	00 48 71             	add    %cl,0x71(%eax)
  40835e:	40                   	inc    %eax
  40835f:	00 05 00 00 c0 0b    	add    %al,0xbc00000
  408365:	00 00                	add    %al,(%eax)
  408367:	00 00                	add    %al,(%eax)
  408369:	00 00                	add    %al,(%eax)
  40836b:	00 1d 00 00 c0 04    	add    %bl,0x4c00000
  408371:	00 00                	add    %al,(%eax)
  408373:	00 00                	add    %al,(%eax)
  408375:	00 00                	add    %al,(%eax)
  408377:	00 96 00 00 c0 04    	add    %dl,0x4c00000(%esi)
  40837d:	00 00                	add    %al,(%eax)
  40837f:	00 00                	add    %al,(%eax)
  408381:	00 00                	add    %al,(%eax)
  408383:	00 8d 00 00 c0 08    	add    %cl,0x8c00000(%ebp)
  408389:	00 00                	add    %al,(%eax)
  40838b:	00 00                	add    %al,(%eax)
  40838d:	00 00                	add    %al,(%eax)
  40838f:	00 8e 00 00 c0 08    	add    %cl,0x8c00000(%esi)
  408395:	00 00                	add    %al,(%eax)
  408397:	00 00                	add    %al,(%eax)
  408399:	00 00                	add    %al,(%eax)
  40839b:	00 8f 00 00 c0 08    	add    %cl,0x8c00000(%edi)
  4083a1:	00 00                	add    %al,(%eax)
  4083a3:	00 00                	add    %al,(%eax)
  4083a5:	00 00                	add    %al,(%eax)
  4083a7:	00 90 00 00 c0 08    	add    %dl,0x8c00000(%eax)
  4083ad:	00 00                	add    %al,(%eax)
  4083af:	00 00                	add    %al,(%eax)
  4083b1:	00 00                	add    %al,(%eax)
  4083b3:	00 91 00 00 c0 08    	add    %dl,0x8c00000(%ecx)
  4083b9:	00 00                	add    %al,(%eax)
  4083bb:	00 00                	add    %al,(%eax)
  4083bd:	00 00                	add    %al,(%eax)
  4083bf:	00 92 00 00 c0 08    	add    %dl,0x8c00000(%edx)
  4083c5:	00 00                	add    %al,(%eax)
  4083c7:	00 00                	add    %al,(%eax)
  4083c9:	00 00                	add    %al,(%eax)
  4083cb:	00 93 00 00 c0 08    	add    %dl,0x8c00000(%ebx)
  4083d1:	00 00                	add    %al,(%eax)
  4083d3:	00 00                	add    %al,(%eax)
  4083d5:	00 00                	add    %al,(%eax)
  4083d7:	00 03                	add    %al,(%ebx)
  4083d9:	00 00                	add    %al,(%eax)
  4083db:	00 07                	add    %al,(%edi)
  4083dd:	00 00                	add    %al,(%eax)
  4083df:	00 78 00             	add    %bh,0x0(%eax)
  4083e2:	00 00                	add    %al,(%eax)
  4083e4:	0a 00                	or     (%eax),%al
  4083e6:	00 00                	add    %al,(%eax)
  4083e8:	ff                   	(bad)  
  4083e9:	ff                   	(bad)  
  4083ea:	ff                   	(bad)  
  4083eb:	ff 00                	incl   (%eax)
  4083ed:	0a 00                	or     (%eax),%al
	...
  40840b:	00 ff                	add    %bh,%bh
  40840d:	ff                   	(bad)  
  40840e:	ff                   	(bad)  
  40840f:	ff 10                	call   *(%eax)
  408411:	00 00                	add    %al,(%eax)
  408413:	00 20                	add    %ah,(%eax)
  408415:	05 93 19 00 00       	add    $0x1993,%eax
	...
  408426:	00 00                	add    %al,(%eax)
  408428:	02 00                	add    (%eax),%al
  40842a:	00 00                	add    %al,(%eax)
  40842c:	c4 73 40             	les    0x40(%ebx),%esi
  40842f:	00 08                	add    %cl,(%eax)
  408431:	00 00                	add    %al,(%eax)
  408433:	00 98 73 40 00 09    	add    %bl,0x9004073(%eax)
  408439:	00 00                	add    %al,(%eax)
  40843b:	00 6c 73 40          	add    %ch,0x40(%ebx,%esi,2)
  40843f:	00 0a                	add    %cl,(%edx)
  408441:	00 00                	add    %al,(%eax)
  408443:	00 48 73             	add    %cl,0x73(%eax)
  408446:	40                   	inc    %eax
  408447:	00 10                	add    %dl,(%eax)
  408449:	00 00                	add    %al,(%eax)
  40844b:	00 1c 73             	add    %bl,(%ebx,%esi,2)
  40844e:	40                   	inc    %eax
  40844f:	00 11                	add    %dl,(%ecx)
  408451:	00 00                	add    %al,(%eax)
  408453:	00 ec                	add    %ch,%ah
  408455:	72 40                	jb     0x408497
  408457:	00 12                	add    %dl,(%edx)
  408459:	00 00                	add    %al,(%eax)
  40845b:	00 c8                	add    %cl,%al
  40845d:	72 40                	jb     0x40849f
  40845f:	00 13                	add    %dl,(%ebx)
  408461:	00 00                	add    %al,(%eax)
  408463:	00 9c 72 40 00 18 00 	add    %bl,0x180040(%edx,%esi,2)
  40846a:	00 00                	add    %al,(%eax)
  40846c:	64 72 40             	fs jb  0x4084af
  40846f:	00 19                	add    %bl,(%ecx)
  408471:	00 00                	add    %al,(%eax)
  408473:	00 3c 72             	add    %bh,(%edx,%esi,2)
  408476:	40                   	inc    %eax
  408477:	00 1a                	add    %bl,(%edx)
  408479:	00 00                	add    %al,(%eax)
  40847b:	00 04 72             	add    %al,(%edx,%esi,2)
  40847e:	40                   	inc    %eax
  40847f:	00 1b                	add    %bl,(%ebx)
  408481:	00 00                	add    %al,(%eax)
  408483:	00 cc                	add    %cl,%ah
  408485:	71 40                	jno    0x4084c7
  408487:	00 1c 00             	add    %bl,(%eax,%eax,1)
  40848a:	00 00                	add    %al,(%eax)
  40848c:	a4                   	movsb  %ds:(%esi),%es:(%edi)
  40848d:	71 40                	jno    0x4084cf
  40848f:	00 78 00             	add    %bh,0x0(%eax)
  408492:	00 00                	add    %al,(%eax)
  408494:	94                   	xchg   %eax,%esp
  408495:	71 40                	jno    0x4084d7
  408497:	00 79 00             	add    %bh,0x0(%ecx)
  40849a:	00 00                	add    %al,(%eax)
  40849c:	84 71 40             	test   %dh,0x40(%ecx)
  40849f:	00 7a 00             	add    %bh,0x0(%edx)
  4084a2:	00 00                	add    %al,(%eax)
  4084a4:	74 71                	je     0x408517
  4084a6:	40                   	inc    %eax
  4084a7:	00 fc                	add    %bh,%ah
  4084a9:	00 00                	add    %al,(%eax)
  4084ab:	00 70 71             	add    %dh,0x71(%eax)
  4084ae:	40                   	inc    %eax
  4084af:	00 ff                	add    %bh,%bh
  4084b1:	00 00                	add    %al,(%eax)
  4084b3:	00 60 71             	add    %ah,0x71(%eax)
  4084b6:	40                   	inc    %eax
  4084b7:	00 00                	add    %al,(%eax)
  4084b9:	00 00                	add    %al,(%eax)
  4084bb:	00 c8                	add    %cl,%al
  4084bd:	8e 40 00             	mov    0x0(%eax),%es
	...
  4084dc:	f8                   	clc    
  4084dd:	8e 40 00             	mov    0x0(%eax),%es
	...
  4084ec:	10 8f 40 00 00 00    	adc    %cl,0x40(%edi)
	...
  4084fa:	00 00                	add    %al,(%eax)
  4084fc:	e0 8e                	loopne 0x40848c
  4084fe:	40                   	inc    %eax
	...
  408577:	00 c9                	add    %cl,%cl
  408579:	57                   	push   %edi
  40857a:	40                   	inc    %eax
  40857b:	00 c9                	add    %cl,%cl
  40857d:	57                   	push   %edi
  40857e:	40                   	inc    %eax
  40857f:	00 c9                	add    %cl,%cl
  408581:	57                   	push   %edi
  408582:	40                   	inc    %eax
  408583:	00 c9                	add    %cl,%cl
  408585:	57                   	push   %edi
  408586:	40                   	inc    %eax
  408587:	00 c9                	add    %cl,%cl
  408589:	57                   	push   %edi
  40858a:	40                   	inc    %eax
  40858b:	00 c9                	add    %cl,%cl
  40858d:	57                   	push   %edi
  40858e:	40                   	inc    %eax
  40858f:	00 9a 85 40 00 9a    	add    %bl,-0x65ffbf7b(%edx)
  408595:	85 40 00             	test   %eax,0x0(%eax)
  408598:	00 00                	add    %al,(%eax)
  40859a:	20 00                	and    %al,(%eax)
  40859c:	20 00                	and    %al,(%eax)
  40859e:	20 00                	and    %al,(%eax)
  4085a0:	20 00                	and    %al,(%eax)
  4085a2:	20 00                	and    %al,(%eax)
  4085a4:	20 00                	and    %al,(%eax)
  4085a6:	20 00                	and    %al,(%eax)
  4085a8:	20 00                	and    %al,(%eax)
  4085aa:	20 00                	and    %al,(%eax)
  4085ac:	28 00                	sub    %al,(%eax)
  4085ae:	28 00                	sub    %al,(%eax)
  4085b0:	28 00                	sub    %al,(%eax)
  4085b2:	28 00                	sub    %al,(%eax)
  4085b4:	28 00                	sub    %al,(%eax)
  4085b6:	20 00                	and    %al,(%eax)
  4085b8:	20 00                	and    %al,(%eax)
  4085ba:	20 00                	and    %al,(%eax)
  4085bc:	20 00                	and    %al,(%eax)
  4085be:	20 00                	and    %al,(%eax)
  4085c0:	20 00                	and    %al,(%eax)
  4085c2:	20 00                	and    %al,(%eax)
  4085c4:	20 00                	and    %al,(%eax)
  4085c6:	20 00                	and    %al,(%eax)
  4085c8:	20 00                	and    %al,(%eax)
  4085ca:	20 00                	and    %al,(%eax)
  4085cc:	20 00                	and    %al,(%eax)
  4085ce:	20 00                	and    %al,(%eax)
  4085d0:	20 00                	and    %al,(%eax)
  4085d2:	20 00                	and    %al,(%eax)
  4085d4:	20 00                	and    %al,(%eax)
  4085d6:	20 00                	and    %al,(%eax)
  4085d8:	20 00                	and    %al,(%eax)
  4085da:	48                   	dec    %eax
  4085db:	00 10                	add    %dl,(%eax)
  4085dd:	00 10                	add    %dl,(%eax)
  4085df:	00 10                	add    %dl,(%eax)
  4085e1:	00 10                	add    %dl,(%eax)
  4085e3:	00 10                	add    %dl,(%eax)
  4085e5:	00 10                	add    %dl,(%eax)
  4085e7:	00 10                	add    %dl,(%eax)
  4085e9:	00 10                	add    %dl,(%eax)
  4085eb:	00 10                	add    %dl,(%eax)
  4085ed:	00 10                	add    %dl,(%eax)
  4085ef:	00 10                	add    %dl,(%eax)
  4085f1:	00 10                	add    %dl,(%eax)
  4085f3:	00 10                	add    %dl,(%eax)
  4085f5:	00 10                	add    %dl,(%eax)
  4085f7:	00 10                	add    %dl,(%eax)
  4085f9:	00 84 00 84 00 84 00 	add    %al,0x840084(%eax,%eax,1)
  408600:	84 00                	test   %al,(%eax)
  408602:	84 00                	test   %al,(%eax)
  408604:	84 00                	test   %al,(%eax)
  408606:	84 00                	test   %al,(%eax)
  408608:	84 00                	test   %al,(%eax)
  40860a:	84 00                	test   %al,(%eax)
  40860c:	84 00                	test   %al,(%eax)
  40860e:	10 00                	adc    %al,(%eax)
  408610:	10 00                	adc    %al,(%eax)
  408612:	10 00                	adc    %al,(%eax)
  408614:	10 00                	adc    %al,(%eax)
  408616:	10 00                	adc    %al,(%eax)
  408618:	10 00                	adc    %al,(%eax)
  40861a:	10 00                	adc    %al,(%eax)
  40861c:	81 00 81 00 81 00    	addl   $0x810081,(%eax)
  408622:	81 00 81 00 81 00    	addl   $0x810081,(%eax)
  408628:	01 00                	add    %eax,(%eax)
  40862a:	01 00                	add    %eax,(%eax)
  40862c:	01 00                	add    %eax,(%eax)
  40862e:	01 00                	add    %eax,(%eax)
  408630:	01 00                	add    %eax,(%eax)
  408632:	01 00                	add    %eax,(%eax)
  408634:	01 00                	add    %eax,(%eax)
  408636:	01 00                	add    %eax,(%eax)
  408638:	01 00                	add    %eax,(%eax)
  40863a:	01 00                	add    %eax,(%eax)
  40863c:	01 00                	add    %eax,(%eax)
  40863e:	01 00                	add    %eax,(%eax)
  408640:	01 00                	add    %eax,(%eax)
  408642:	01 00                	add    %eax,(%eax)
  408644:	01 00                	add    %eax,(%eax)
  408646:	01 00                	add    %eax,(%eax)
  408648:	01 00                	add    %eax,(%eax)
  40864a:	01 00                	add    %eax,(%eax)
  40864c:	01 00                	add    %eax,(%eax)
  40864e:	01 00                	add    %eax,(%eax)
  408650:	10 00                	adc    %al,(%eax)
  408652:	10 00                	adc    %al,(%eax)
  408654:	10 00                	adc    %al,(%eax)
  408656:	10 00                	adc    %al,(%eax)
  408658:	10 00                	adc    %al,(%eax)
  40865a:	10 00                	adc    %al,(%eax)
  40865c:	82                   	(bad)  
  40865d:	00 82 00 82 00 82    	add    %al,-0x7dff7e00(%edx)
  408663:	00 82 00 82 00 02    	add    %al,0x2008200(%edx)
  408669:	00 02                	add    %al,(%edx)
  40866b:	00 02                	add    %al,(%edx)
  40866d:	00 02                	add    %al,(%edx)
  40866f:	00 02                	add    %al,(%edx)
  408671:	00 02                	add    %al,(%edx)
  408673:	00 02                	add    %al,(%edx)
  408675:	00 02                	add    %al,(%edx)
  408677:	00 02                	add    %al,(%edx)
  408679:	00 02                	add    %al,(%edx)
  40867b:	00 02                	add    %al,(%edx)
  40867d:	00 02                	add    %al,(%edx)
  40867f:	00 02                	add    %al,(%edx)
  408681:	00 02                	add    %al,(%edx)
  408683:	00 02                	add    %al,(%edx)
  408685:	00 02                	add    %al,(%edx)
  408687:	00 02                	add    %al,(%edx)
  408689:	00 02                	add    %al,(%edx)
  40868b:	00 02                	add    %al,(%edx)
  40868d:	00 02                	add    %al,(%edx)
  40868f:	00 10                	add    %dl,(%eax)
  408691:	00 10                	add    %dl,(%eax)
  408693:	00 10                	add    %dl,(%eax)
  408695:	00 10                	add    %dl,(%eax)
  408697:	00 20                	add    %ah,(%eax)
	...
  40879d:	00 00                	add    %al,(%eax)
  40879f:	00 f8                	add    %bh,%al
  4087a1:	03 00                	add    (%eax),%eax
  4087a3:	00 00                	add    %al,(%eax)
  4087a5:	00 00                	add    %al,(%eax)
  4087a7:	00 01                	add    %al,(%ecx)
  4087a9:	00 00                	add    %al,(%eax)
  4087ab:	00 16                	add    %dl,(%esi)
  4087ad:	00 00                	add    %al,(%eax)
  4087af:	00 02                	add    %al,(%edx)
  4087b1:	00 00                	add    %al,(%eax)
  4087b3:	00 02                	add    %al,(%edx)
  4087b5:	00 00                	add    %al,(%eax)
  4087b7:	00 03                	add    %al,(%ebx)
  4087b9:	00 00                	add    %al,(%eax)
  4087bb:	00 02                	add    %al,(%edx)
  4087bd:	00 00                	add    %al,(%eax)
  4087bf:	00 04 00             	add    %al,(%eax,%eax,1)
  4087c2:	00 00                	add    %al,(%eax)
  4087c4:	18 00                	sbb    %al,(%eax)
  4087c6:	00 00                	add    %al,(%eax)
  4087c8:	05 00 00 00 0d       	add    $0xd000000,%eax
  4087cd:	00 00                	add    %al,(%eax)
  4087cf:	00 06                	add    %al,(%esi)
  4087d1:	00 00                	add    %al,(%eax)
  4087d3:	00 09                	add    %cl,(%ecx)
  4087d5:	00 00                	add    %al,(%eax)
  4087d7:	00 07                	add    %al,(%edi)
  4087d9:	00 00                	add    %al,(%eax)
  4087db:	00 0c 00             	add    %cl,(%eax,%eax,1)
  4087de:	00 00                	add    %al,(%eax)
  4087e0:	08 00                	or     %al,(%eax)
  4087e2:	00 00                	add    %al,(%eax)
  4087e4:	0c 00                	or     $0x0,%al
  4087e6:	00 00                	add    %al,(%eax)
  4087e8:	09 00                	or     %eax,(%eax)
  4087ea:	00 00                	add    %al,(%eax)
  4087ec:	0c 00                	or     $0x0,%al
  4087ee:	00 00                	add    %al,(%eax)
  4087f0:	0a 00                	or     (%eax),%al
  4087f2:	00 00                	add    %al,(%eax)
  4087f4:	07                   	pop    %es
  4087f5:	00 00                	add    %al,(%eax)
  4087f7:	00 0b                	add    %cl,(%ebx)
  4087f9:	00 00                	add    %al,(%eax)
  4087fb:	00 08                	add    %cl,(%eax)
  4087fd:	00 00                	add    %al,(%eax)
  4087ff:	00 0c 00             	add    %cl,(%eax,%eax,1)
  408802:	00 00                	add    %al,(%eax)
  408804:	16                   	push   %ss
  408805:	00 00                	add    %al,(%eax)
  408807:	00 0d 00 00 00 16    	add    %cl,0x16000000
  40880d:	00 00                	add    %al,(%eax)
  40880f:	00 0f                	add    %cl,(%edi)
  408811:	00 00                	add    %al,(%eax)
  408813:	00 02                	add    %al,(%edx)
  408815:	00 00                	add    %al,(%eax)
  408817:	00 10                	add    %dl,(%eax)
  408819:	00 00                	add    %al,(%eax)
  40881b:	00 0d 00 00 00 11    	add    %cl,0x11000000
  408821:	00 00                	add    %al,(%eax)
  408823:	00 12                	add    %dl,(%edx)
  408825:	00 00                	add    %al,(%eax)
  408827:	00 12                	add    %dl,(%edx)
  408829:	00 00                	add    %al,(%eax)
  40882b:	00 02                	add    %al,(%edx)
  40882d:	00 00                	add    %al,(%eax)
  40882f:	00 21                	add    %ah,(%ecx)
  408831:	00 00                	add    %al,(%eax)
  408833:	00 0d 00 00 00 35    	add    %cl,0x35000000
  408839:	00 00                	add    %al,(%eax)
  40883b:	00 02                	add    %al,(%edx)
  40883d:	00 00                	add    %al,(%eax)
  40883f:	00 41 00             	add    %al,0x0(%ecx)
  408842:	00 00                	add    %al,(%eax)
  408844:	0d 00 00 00 43       	or     $0x43000000,%eax
  408849:	00 00                	add    %al,(%eax)
  40884b:	00 02                	add    %al,(%edx)
  40884d:	00 00                	add    %al,(%eax)
  40884f:	00 50 00             	add    %dl,0x0(%eax)
  408852:	00 00                	add    %al,(%eax)
  408854:	11 00                	adc    %eax,(%eax)
  408856:	00 00                	add    %al,(%eax)
  408858:	52                   	push   %edx
  408859:	00 00                	add    %al,(%eax)
  40885b:	00 0d 00 00 00 53    	add    %cl,0x53000000
  408861:	00 00                	add    %al,(%eax)
  408863:	00 0d 00 00 00 57    	add    %cl,0x57000000
  408869:	00 00                	add    %al,(%eax)
  40886b:	00 16                	add    %dl,(%esi)
  40886d:	00 00                	add    %al,(%eax)
  40886f:	00 59 00             	add    %bl,0x0(%ecx)
  408872:	00 00                	add    %al,(%eax)
  408874:	0b 00                	or     (%eax),%eax
  408876:	00 00                	add    %al,(%eax)
  408878:	6c                   	insb   (%dx),%es:(%edi)
  408879:	00 00                	add    %al,(%eax)
  40887b:	00 0d 00 00 00 6d    	add    %cl,0x6d000000
  408881:	00 00                	add    %al,(%eax)
  408883:	00 20                	add    %ah,(%eax)
  408885:	00 00                	add    %al,(%eax)
  408887:	00 70 00             	add    %dh,0x0(%eax)
  40888a:	00 00                	add    %al,(%eax)
  40888c:	1c 00                	sbb    $0x0,%al
  40888e:	00 00                	add    %al,(%eax)
  408890:	72 00                	jb     0x408892
  408892:	00 00                	add    %al,(%eax)
  408894:	09 00                	or     %eax,(%eax)
  408896:	00 00                	add    %al,(%eax)
  408898:	06                   	push   %es
  408899:	00 00                	add    %al,(%eax)
  40889b:	00 16                	add    %dl,(%esi)
  40889d:	00 00                	add    %al,(%eax)
  40889f:	00 80 00 00 00 0a    	add    %al,0xa000000(%eax)
  4088a5:	00 00                	add    %al,(%eax)
  4088a7:	00 81 00 00 00 0a    	add    %al,0xa000000(%ecx)
  4088ad:	00 00                	add    %al,(%eax)
  4088af:	00 82 00 00 00 09    	add    %al,0x9000000(%edx)
  4088b5:	00 00                	add    %al,(%eax)
  4088b7:	00 83 00 00 00 16    	add    %al,0x16000000(%ebx)
  4088bd:	00 00                	add    %al,(%eax)
  4088bf:	00 84 00 00 00 0d 00 	add    %al,0xd0000(%eax,%eax,1)
  4088c6:	00 00                	add    %al,(%eax)
  4088c8:	91                   	xchg   %eax,%ecx
  4088c9:	00 00                	add    %al,(%eax)
  4088cb:	00 29                	add    %ch,(%ecx)
  4088cd:	00 00                	add    %al,(%eax)
  4088cf:	00 9e 00 00 00 0d    	add    %bl,0xd000000(%esi)
  4088d5:	00 00                	add    %al,(%eax)
  4088d7:	00 a1 00 00 00 02    	add    %ah,0x2000000(%ecx)
  4088dd:	00 00                	add    %al,(%eax)
  4088df:	00 a4 00 00 00 0b 00 	add    %ah,0xb0000(%eax,%eax,1)
  4088e6:	00 00                	add    %al,(%eax)
  4088e8:	a7                   	cmpsl  %es:(%edi),%ds:(%esi)
  4088e9:	00 00                	add    %al,(%eax)
  4088eb:	00 0d 00 00 00 b7    	add    %cl,0xb7000000
  4088f1:	00 00                	add    %al,(%eax)
  4088f3:	00 11                	add    %dl,(%ecx)
  4088f5:	00 00                	add    %al,(%eax)
  4088f7:	00 ce                	add    %cl,%dh
  4088f9:	00 00                	add    %al,(%eax)
  4088fb:	00 02                	add    %al,(%edx)
  4088fd:	00 00                	add    %al,(%eax)
  4088ff:	00 d7                	add    %dl,%bh
  408901:	00 00                	add    %al,(%eax)
  408903:	00 0b                	add    %cl,(%ebx)
  408905:	00 00                	add    %al,(%eax)
  408907:	00 18                	add    %bl,(%eax)
  408909:	07                   	pop    %es
  40890a:	00 00                	add    %al,(%eax)
  40890c:	0c 00                	or     $0x0,%al
  40890e:	00 00                	add    %al,(%eax)
  408910:	01 02                	add    %eax,(%edx)
  408912:	04 08                	add    $0x8,%al
  408914:	00 00                	add    %al,(%eax)
  408916:	00 00                	add    %al,(%eax)
  408918:	a4                   	movsb  %ds:(%esi),%es:(%edi)
  408919:	03 00                	add    (%eax),%eax
  40891b:	00 60 82             	add    %ah,-0x7e(%eax)
  40891e:	79 82                	jns    0x4088a2
  408920:	21 00                	and    %eax,(%eax)
  408922:	00 00                	add    %al,(%eax)
  408924:	00 00                	add    %al,(%eax)
  408926:	00 00                	add    %al,(%eax)
  408928:	a6                   	cmpsb  %es:(%edi),%ds:(%esi)
  408929:	df 00                	fild   (%eax)
  40892b:	00 00                	add    %al,(%eax)
  40892d:	00 00                	add    %al,(%eax)
  40892f:	00 a1 a5 00 00 00    	add    %ah,0xa5(%ecx)
  408935:	00 00                	add    %al,(%eax)
  408937:	00 81 9f e0 fc 00    	add    %al,0xfce09f(%ecx)
  40893d:	00 00                	add    %al,(%eax)
  40893f:	00 40 7e             	add    %al,0x7e(%eax)
  408942:	80 fc 00             	cmp    $0x0,%ah
  408945:	00 00                	add    %al,(%eax)
  408947:	00 a8 03 00 00 c1    	add    %ch,-0x3efffffd(%eax)
  40894d:	a3 da a3 20 00       	mov    %eax,0x20a3da
	...
  408966:	00 00                	add    %al,(%eax)
  408968:	81 fe 00 00 00 00    	cmp    $0x0,%esi
  40896e:	00 00                	add    %al,(%eax)
  408970:	40                   	inc    %eax
  408971:	fe 00                	incb   (%eax)
  408973:	00 00                	add    %al,(%eax)
  408975:	00 00                	add    %al,(%eax)
  408977:	00 b5 03 00 00 c1    	add    %dh,-0x3efffffd(%ebp)
  40897d:	a3 da a3 20 00       	mov    %eax,0x20a3da
	...
  408996:	00 00                	add    %al,(%eax)
  408998:	81 fe 00 00 00 00    	cmp    $0x0,%esi
  40899e:	00 00                	add    %al,(%eax)
  4089a0:	41                   	inc    %ecx
  4089a1:	fe 00                	incb   (%eax)
  4089a3:	00 00                	add    %al,(%eax)
  4089a5:	00 00                	add    %al,(%eax)
  4089a7:	00 b6 03 00 00 cf    	add    %dh,-0x30fffffd(%esi)
  4089ad:	a2 e4 a2 1a 00       	mov    %al,0x1aa2e4
  4089b2:	e5 a2                	in     $0xa2,%eax
  4089b4:	e8 a2 5b 00 00       	call   0x40e55b
	...
  4089c5:	00 00                	add    %al,(%eax)
  4089c7:	00 81 fe 00 00 00    	add    %al,0xfe(%ecx)
  4089cd:	00 00                	add    %al,(%eax)
  4089cf:	00 40 7e             	add    %al,0x7e(%eax)
  4089d2:	a1 fe 00 00 00       	mov    0xfe,%eax
  4089d7:	00 51 05             	add    %dl,0x5(%ecx)
  4089da:	00 00                	add    %al,(%eax)
  4089dc:	51                   	push   %ecx
  4089dd:	da 5e da             	ficompl -0x26(%esi)
  4089e0:	20 00                	and    %al,(%eax)
  4089e2:	5f                   	pop    %edi
  4089e3:	da 6a da             	fisubrl -0x26(%edx)
  4089e6:	32 00                	xor    (%eax),%al
	...
  4089f8:	81 d3 d8 de e0 f9    	adc    $0xf9e0ded8,%ebx
  4089fe:	00 00                	add    %al,(%eax)
  408a00:	31 7e 81             	xor    %edi,-0x7f(%esi)
  408a03:	fe 00                	incb   (%eax)
	...
  408a0d:	00 00                	add    %al,(%eax)
  408a0f:	00 43 00             	add    %al,0x0(%ebx)
  408a12:	00 00                	add    %al,(%eax)
  408a14:	43                   	inc    %ebx
	...
  408a95:	00 00                	add    %al,(%eax)
  408a97:	00 43 00             	add    %al,0x0(%ebx)
	...
  408b1a:	00 00                	add    %al,(%eax)
  408b1c:	01 00                	add    %eax,(%eax)
  408b1e:	00 00                	add    %al,(%eax)
  408b20:	2e 00 00             	add    %al,%cs:(%eax)
  408b23:	00 01                	add    %al,(%ecx)
	...
  408b2d:	00 00                	add    %al,(%eax)
  408b2f:	00 38                	add    %bh,(%eax)
  408b31:	8b 40 00             	mov    0x0(%eax),%eax
  408b34:	00 00                	add    %al,(%eax)
  408b36:	00 00                	add    %al,(%eax)
  408b38:	dc 75 40             	fdivl  0x40(%ebp)
  408b3b:	00 d8                	add    %bl,%al
  408b3d:	75 40                	jne    0x408b7f
  408b3f:	00 d4                	add    %dl,%ah
  408b41:	75 40                	jne    0x408b83
  408b43:	00 d0                	add    %dl,%al
  408b45:	75 40                	jne    0x408b87
  408b47:	00 cc                	add    %cl,%ah
  408b49:	75 40                	jne    0x408b8b
  408b4b:	00 c8                	add    %cl,%al
  408b4d:	75 40                	jne    0x408b8f
  408b4f:	00 c4                	add    %al,%ah
  408b51:	75 40                	jne    0x408b93
  408b53:	00 bc 75 40 00 b4 75 	add    %bh,0x75b40040(%ebp,%esi,2)
  408b5a:	40                   	inc    %eax
  408b5b:	00 ac 75 40 00 a0 75 	add    %ch,0x75a00040(%ebp,%esi,2)
  408b62:	40                   	inc    %eax
  408b63:	00 94 75 40 00 8c 75 	add    %dl,0x758c0040(%ebp,%esi,2)
  408b6a:	40                   	inc    %eax
  408b6b:	00 80 75 40 00 7c    	add    %al,0x7c004075(%eax)
  408b71:	75 40                	jne    0x408bb3
  408b73:	00 78 75             	add    %bh,0x75(%eax)
  408b76:	40                   	inc    %eax
  408b77:	00 74 75 40          	add    %dh,0x40(%ebp,%esi,2)
  408b7b:	00 70 75             	add    %dh,0x75(%eax)
  408b7e:	40                   	inc    %eax
  408b7f:	00 6c 75 40          	add    %ch,0x40(%ebp,%esi,2)
  408b83:	00 68 75             	add    %ch,0x75(%eax)
  408b86:	40                   	inc    %eax
  408b87:	00 64 75 40          	add    %ah,0x40(%ebp,%esi,2)
  408b8b:	00 60 75             	add    %ah,0x75(%eax)
  408b8e:	40                   	inc    %eax
  408b8f:	00 5c 75 40          	add    %bl,0x40(%ebp,%esi,2)
  408b93:	00 58 75             	add    %bl,0x75(%eax)
  408b96:	40                   	inc    %eax
  408b97:	00 54 75 40          	add    %dl,0x40(%ebp,%esi,2)
  408b9b:	00 50 75             	add    %dl,0x75(%eax)
  408b9e:	40                   	inc    %eax
  408b9f:	00 48 75             	add    %cl,0x75(%eax)
  408ba2:	40                   	inc    %eax
  408ba3:	00 3c 75 40 00 34 75 	add    %bh,0x75340040(,%esi,2)
  408baa:	40                   	inc    %eax
  408bab:	00 2c 75 40 00 6c 75 	add    %ch,0x756c0040(,%esi,2)
  408bb2:	40                   	inc    %eax
  408bb3:	00 24 75 40 00 1c 75 	add    %ah,0x751c0040(,%esi,2)
  408bba:	40                   	inc    %eax
  408bbb:	00 14 75 40 00 08 75 	add    %dl,0x75080040(,%esi,2)
  408bc2:	40                   	inc    %eax
  408bc3:	00 00                	add    %al,(%eax)
  408bc5:	75 40                	jne    0x408c07
  408bc7:	00 f4                	add    %dh,%ah
  408bc9:	74 40                	je     0x408c0b
  408bcb:	00 e8                	add    %ch,%al
  408bcd:	74 40                	je     0x408c0f
  408bcf:	00 e4                	add    %ah,%ah
  408bd1:	74 40                	je     0x408c13
  408bd3:	00 e0                	add    %ah,%al
  408bd5:	74 40                	je     0x408c17
  408bd7:	00 d8                	add    %bl,%al
  408bd9:	74 40                	je     0x408c1b
  408bdb:	00 c4                	add    %al,%ah
  408bdd:	74 40                	je     0x408c1f
  408bdf:	00 bc 74 40 00 00 00 	add    %bh,0x40(%esp,%esi,2)
  408be6:	00 00                	add    %al,(%eax)
  408be8:	2e 00 00             	add    %al,%cs:(%eax)
  408beb:	00 00                	add    %al,(%eax)
  408bed:	00 00                	add    %al,(%eax)
  408bef:	00 e8                	add    %ch,%al
  408bf1:	8b 40 00             	mov    0x0(%eax),%eax
  408bf4:	e8 8f 40 00 e8       	call   0xe840cc88
  408bf9:	8f 40 00             	popl   0x0(%eax)
  408bfc:	e8 8f 40 00 e8       	call   0xe840cc90
  408c01:	8f 40 00             	popl   0x0(%eax)
  408c04:	e8 8f 40 00 e8       	call   0xe840cc98
  408c09:	8f 40 00             	popl   0x0(%eax)
  408c0c:	e8 8f 40 00 e8       	call   0xe840cca0
  408c11:	8f 40 00             	popl   0x0(%eax)
  408c14:	e8 8f 40 00 7f       	call   0x7f40cca8
  408c19:	7f 7f                	jg     0x408c9a
  408c1b:	7f 7f                	jg     0x408c9c
  408c1d:	7f 7f                	jg     0x408c9e
  408c1f:	7f f0                	jg     0x408c11
  408c21:	8b 40 00             	mov    0x0(%eax),%eax
	...
  408c30:	80 70 00 00          	xorb   $0x0,0x0(%eax)
  408c34:	01 00                	add    %eax,(%eax)
  408c36:	00 00                	add    %al,(%eax)
  408c38:	f0 f1                	lock icebp 
  408c3a:	ff                   	(bad)  
  408c3b:	ff 50 53             	call   *0x53(%eax)
  408c3e:	54                   	push   %esp
	...
  408c7b:	00 50 44             	add    %dl,0x44(%eax)
  408c7e:	54                   	push   %esp
	...
  408cbb:	00 3c 8c             	add    %bh,(%esp,%ecx,4)
  408cbe:	40                   	inc    %eax
  408cbf:	00 7c 8c 40          	add    %bh,0x40(%esp,%ecx,4)
  408cc3:	00 00                	add    %al,(%eax)
  408cc5:	00 00                	add    %al,(%eax)
  408cc7:	00 ff                	add    %bh,%bh
  408cc9:	ff                   	(bad)  
  408cca:	ff                   	(bad)  
  408ccb:	ff 00                	incl   (%eax)
	...
  408cd5:	00 00                	add    %al,(%eax)
  408cd7:	00 ff                	add    %bh,%bh
  408cd9:	ff                   	(bad)  
  408cda:	ff                   	(bad)  
  408cdb:	ff 00                	incl   (%eax)
	...
  408ced:	00 00                	add    %al,(%eax)
  408cef:	00 ff                	add    %bh,%bh
  408cf1:	ff                   	(bad)  
  408cf2:	ff                   	(bad)  
  408cf3:	ff 1e                	lcall  *(%esi)
  408cf5:	00 00                	add    %al,(%eax)
  408cf7:	00 3b                	add    %bh,(%ebx)
  408cf9:	00 00                	add    %al,(%eax)
  408cfb:	00 5a 00             	add    %bl,0x0(%edx)
  408cfe:	00 00                	add    %al,(%eax)
  408d00:	78 00                	js     0x408d02
  408d02:	00 00                	add    %al,(%eax)
  408d04:	97                   	xchg   %eax,%edi
  408d05:	00 00                	add    %al,(%eax)
  408d07:	00 b5 00 00 00 d4    	add    %dh,-0x2c000000(%ebp)
  408d0d:	00 00                	add    %al,(%eax)
  408d0f:	00 f3                	add    %dh,%bl
  408d11:	00 00                	add    %al,(%eax)
  408d13:	00 11                	add    %dl,(%ecx)
  408d15:	01 00                	add    %eax,(%eax)
  408d17:	00 30                	add    %dh,(%eax)
  408d19:	01 00                	add    %eax,(%eax)
  408d1b:	00 4e 01             	add    %cl,0x1(%esi)
  408d1e:	00 00                	add    %al,(%eax)
  408d20:	6d                   	insl   (%dx),%es:(%edi)
  408d21:	01 00                	add    %eax,(%eax)
  408d23:	00 ff                	add    %bh,%bh
  408d25:	ff                   	(bad)  
  408d26:	ff                   	(bad)  
  408d27:	ff 1e                	lcall  *(%esi)
  408d29:	00 00                	add    %al,(%eax)
  408d2b:	00 3a                	add    %bh,(%edx)
  408d2d:	00 00                	add    %al,(%eax)
  408d2f:	00 59 00             	add    %bl,0x0(%ecx)
  408d32:	00 00                	add    %al,(%eax)
  408d34:	77 00                	ja     0x408d36
  408d36:	00 00                	add    %al,(%eax)
  408d38:	96                   	xchg   %eax,%esi
  408d39:	00 00                	add    %al,(%eax)
  408d3b:	00 b4 00 00 00 d3 00 	add    %dh,0xd30000(%eax,%eax,1)
  408d42:	00 00                	add    %al,(%eax)
  408d44:	f2 00 00             	repnz add %al,(%eax)
  408d47:	00 10                	add    %dl,(%eax)
  408d49:	01 00                	add    %eax,(%eax)
  408d4b:	00 2f                	add    %ch,(%edi)
  408d4d:	01 00                	add    %eax,(%eax)
  408d4f:	00 4d 01             	add    %cl,0x1(%ebp)
  408d52:	00 00                	add    %al,(%eax)
  408d54:	6c                   	insb   (%dx),%es:(%edi)
  408d55:	01 00                	add    %eax,(%eax)
	...
